EXPORTS
	_ZN24CFMRadioActiveIdleEngine4NewLER37MFMRadioActiveIdleEngineNotifyHandler @ 1 NONAME
	_ZN24CFMRadioActiveIdleEngine6CancelEv @ 2 NONAME
	_ZN24CFMRadioActiveIdleEngine9ActivateLEv @ 3 NONAME
	_ZN24CFMRadioActiveIdleEngineD0Ev @ 4 NONAME
	_ZN24CFMRadioActiveIdleEngineD1Ev @ 5 NONAME
	_ZN24CFMRadioActiveIdleEngineD2Ev @ 6 NONAME
	_ZNK24CFMRadioActiveIdleEngine10PowerStateEv @ 7 NONAME
	_ZNK24CFMRadioActiveIdleEngine11ChannelNameEv @ 8 NONAME
	_ZNK24CFMRadioActiveIdleEngine11RadioVolumeEv @ 9 NONAME
	_ZNK24CFMRadioActiveIdleEngine11TuningStateEv @ 10 NONAME
	_ZNK24CFMRadioActiveIdleEngine12SetMuteStateE24TFMRadioPSRadioMuteState @ 11 NONAME
	_ZNK24CFMRadioActiveIdleEngine13AntennaStatusEv @ 12 NONAME
	_ZNK24CFMRadioActiveIdleEngine17AdjustRadioVolumeE22TFMRadioPSAdjustVolume @ 13 NONAME
	_ZNK24CFMRadioActiveIdleEngine17RDSProgramServiceEv @ 14 NONAME
	_ZNK24CFMRadioActiveIdleEngine21FrequencyDecimalCountEv @ 15 NONAME
	_ZNK24CFMRadioActiveIdleEngine23ApplicationRunningStateEv @ 16 NONAME
	_ZNK24CFMRadioActiveIdleEngine7ChannelEv @ 17 NONAME
	_ZNK24CFMRadioActiveIdleEngine9FrequencyEv @ 18 NONAME
	_ZNK24CFMRadioActiveIdleEngine9MuteStateEv @ 19 NONAME
	_ZTI24CFMRadioPropertyObserver @ 20 NONAME ; #<TI>#
	_ZTV24CFMRadioPropertyObserver @ 21 NONAME ; #<VT>#

