EXPORTS
	_ZN12CRadioPubSub4NewLEv @ 1 NONAME
	_ZN12CRadioPubSubD0Ev @ 2 NONAME
	_ZN12CRadioPubSubD1Ev @ 3 NONAME
	_ZN12CRadioPubSubD2Ev @ 4 NONAME
	_ZN16RadioEngineUtils11InitializeLEP7CCoeEnv @ 5 NONAME
	_ZN16RadioEngineUtils21FormatFrequencyStringER6TDes16miR7TDesC16 @ 6 NONAME
	_ZN16RadioEngineUtils21ReadFrequencyStringLCEmii @ 7 NONAME
	_ZN16RadioEngineUtils3EnvEv @ 8 NONAME
	_ZN16RadioEngineUtils6LoggerEv @ 9 NONAME
	_ZN16RadioEngineUtils7ReleaseEv @ 10 NONAME
	_ZN16RadioEngineUtils9FsSessionEv @ 11 NONAME
	_ZN17CRadioAudioRouter14SetAudioRouteLEN11RadioEngine16TRadioAudioRouteE @ 12 NONAME
	_ZN17CRadioAudioRouter21RegisterRoutableAudioEP19CRadioRoutableAudio @ 13 NONAME
	_ZN17CRadioAudioRouter23UnRegisterRoutableAudioEP19CRadioRoutableAudio @ 14 NONAME
	_ZN17CRadioAudioRouter4NewLER26MRadioAudioRoutingObserver @ 15 NONAME
	_ZN17CRadioAudioRouterD0Ev @ 16 NONAME
	_ZN17CRadioAudioRouterD1Ev @ 17 NONAME
	_ZN17CRadioAudioRouterD2Ev @ 18 NONAME
	_ZN18CRadioRemConTarget4NewLEv @ 19 NONAME
	_ZN18MRadioEngineLogger6LoggerEv @ 20 NONAME
	_ZN18TRadioMethodLoggerC1EPKtS1_ @ 21 NONAME
	_ZN18TRadioMethodLoggerC2EPKtS1_ @ 22 NONAME
	_ZN18TRadioMethodLoggerD1Ev @ 23 NONAME
	_ZN18TRadioMethodLoggerD2Ev @ 24 NONAME
	_ZN19CRadioRoutableAudio14SetAudioOutputEP12CAudioOutput @ 25 NONAME
	_ZN19CRadioRoutableAudio14SetAudioRouteLEN11RadioEngine16TRadioAudioRouteE @ 26 NONAME
	_ZN19CRadioRoutableAudio17DeleteAudioOutputEv @ 27 NONAME
	_ZN19CRadioRoutableAudioC1EP17CRadioAudioRouter @ 28 NONAME
	_ZN19CRadioRoutableAudioC2EP17CRadioAudioRouter @ 29 NONAME
	_ZN19CRadioRoutableAudioD0Ev @ 30 NONAME
	_ZN19CRadioRoutableAudioD1Ev @ 31 NONAME
	_ZN19CRadioRoutableAudioD2Ev @ 32 NONAME
	_ZN22CRadioPropertyObserver4NewLER28MRadioPropertyChangeObserverRK4TUidjNS_18TRadioPropertyTypeE @ 33 NONAME
	_ZN22CRadioPropertyObserver9ActivateLEv @ 34 NONAME
	_ZN23CRadioRepositoryManager19GetRepositoryValueLERK4TUidmR5TDes8 @ 35 NONAME
	_ZN23CRadioRepositoryManager19GetRepositoryValueLERK4TUidmR6TDes16 @ 36 NONAME
	_ZN23CRadioRepositoryManager19GetRepositoryValueLERK4TUidmRd @ 37 NONAME
	_ZN23CRadioRepositoryManager19GetRepositoryValueLERK4TUidmRi @ 38 NONAME
	_ZN23CRadioRepositoryManager19SetRepositoryValueLERK4TUidmRK6TDesC8 @ 39 NONAME
	_ZN23CRadioRepositoryManager19SetRepositoryValueLERK4TUidmRK7TDesC16 @ 40 NONAME
	_ZN23CRadioRepositoryManager19SetRepositoryValueLERK4TUidmRKd @ 41 NONAME
	_ZN23CRadioRepositoryManager19SetRepositoryValueLERK4TUidmi @ 42 NONAME
	_ZN23CRadioRepositoryManager4NewLEi @ 43 NONAME
	_ZN23CRadioRepositoryManagerD0Ev @ 44 NONAME
	_ZN23CRadioRepositoryManagerD1Ev @ 45 NONAME
	_ZN23CRadioRepositoryManagerD2Ev @ 46 NONAME
	_ZN26CRadioSystemEventCollector4NewLEv @ 47 NONAME
	_ZN26CRadioSystemEventCollectorD0Ev @ 48 NONAME
	_ZN26CRadioSystemEventCollectorD1Ev @ 49 NONAME
	_ZN26CRadioSystemEventCollectorD2Ev @ 50 NONAME
	_ZNK19CRadioRoutableAudio21AudioRoutingSupportedEv @ 51 NONAME
	_ZNK22CRadioPropertyObserver8ValueDesEv @ 52 NONAME
	_ZNK22CRadioPropertyObserver8ValueIntEv @ 53 NONAME
	_ZNK22CRadioPropertyObserver9ValueDes8Ev @ 54 NONAME
	_ZTI15CRadioEngineTls @ 55 NONAME ; #<TI>#
	_ZTI19CRadioRoutableAudio @ 56 NONAME ; #<TI>#
	_ZTV15CRadioEngineTls @ 57 NONAME ; #<VT>#
	_ZTV19CRadioRoutableAudio @ 58 NONAME ; #<VT>#

