EXPORTS
	_ZN12CRadioEngine10CancelScanEv @ 1 NONAME
	_ZN12CRadioEngine11RdsReceiverEv @ 2 NONAME
	_ZN12CRadioEngine11TunePresetLEi @ 3 NONAME
	_ZN12CRadioEngine12SetAudioModeENS_17TFMRadioAudioModeE @ 4 NONAME
	_ZN12CRadioEngine13RadioSettingsEv @ 5 NONAME
	_ZN12CRadioEngine14GetPresetNameLEi @ 6 NONAME
	_ZN12CRadioEngine14SetAudioOutputENS_19TFMRadioAudioOutputE @ 7 NONAME
	_ZN12CRadioEngine14SetTunerModeOnEv @ 8 NONAME
	_ZN12CRadioEngine15InitializeRadioEv @ 9 NONAME
	_ZN12CRadioEngine17IsOfflineProfileLEv @ 10 NONAME
	_ZN12CRadioEngine20SetRdsAfSearchEnableEi @ 11 NONAME
	_ZN12CRadioEngine21GetFrequencyBandRangeERiS0_ @ 12 NONAME
	_ZN12CRadioEngine21GetRTPlusSupportLevelEv @ 13 NONAME
	_ZN12CRadioEngine21SetCurrentPresetIndexEi @ 14 NONAME
	_ZN12CRadioEngine23MusicStoreNoteDisplayedEv @ 15 NONAME
	_ZN12CRadioEngine23SetPresetNameFrequencyLEiRK4TBufILi32EEi @ 16 NONAME
	_ZN12CRadioEngine26GetPresetNameAndFrequencyLEiR6TDes16Ri @ 17 NONAME
	_ZN12CRadioEngine26SetMusicStoreNoteDisplayedEv @ 18 NONAME
	_ZN12CRadioEngine27CancelScanLocalStationsScanEv @ 19 NONAME
	_ZN12CRadioEngine4NewLER31MRadioEngineStateChangeCallback @ 20 NONAME
	_ZN12CRadioEngine4TuneEiNS_10TRadioModeE @ 21 NONAME
	_ZN12CRadioEngine6ScanUpEv @ 22 NONAME
	_ZN12CRadioEngine7RadioOnEv @ 23 NONAME
	_ZN12CRadioEngine8RadioOffEv @ 24 NONAME
	_ZN12CRadioEngine8ScanDownEv @ 25 NONAME
	_ZN12CRadioEngine9IsRadioOnEv @ 26 NONAME
	_ZN12CRadioEngine9SetMuteOnEi @ 27 NONAME
	_ZN12CRadioEngine9SetVolumeEi @ 28 NONAME
	_ZN12CRadioEngineD0Ev @ 29 NONAME
	_ZN12CRadioEngineD1Ev @ 30 NONAME
	_ZN12CRadioEngineD2Ev @ 31 NONAME
	_ZN14CFMRadioPubSub23SetControlEventObserverEP28MFMRadioControlEventObserver @ 32 NONAME
	_ZN14TRadioSettings20IsRdsAfSearchEnabledEv @ 33 NONAME
	_ZN23CFMRadioRdsReceiverBase11AddObserverEP19MFMRadioRdsObserver @ 34 NONAME
	_ZN23CFMRadioRdsReceiverBase14RemoveObserverEP19MFMRadioRdsObserver @ 35 NONAME
	_ZNK12CRadioEngine10GetRegionLEv @ 36 NONAME
	_ZNK12CRadioEngine12DecimalCountEv @ 37 NONAME
	_ZNK12CRadioEngine12GetAudioModeEv @ 38 NONAME
	_ZNK12CRadioEngine12GetMaxVolumeEv @ 39 NONAME
	_ZNK12CRadioEngine12GetRadioModeEv @ 40 NONAME
	_ZNK12CRadioEngine12SetRegionIdLEi @ 41 NONAME
	_ZNK12CRadioEngine14GetAudioOutputEv @ 42 NONAME
	_ZNK12CRadioEngine14GetPresetIndexEv @ 43 NONAME
	_ZNK12CRadioEngine15RegionIdAtIndexEi @ 44 NONAME
	_ZNK12CRadioEngine17FrequencyStepSizeEv @ 45 NONAME
	_ZNK12CRadioEngine17GetTunedFrequencyEv @ 46 NONAME
	_ZNK12CRadioEngine18IsHeadsetConnectedEv @ 47 NONAME
	_ZNK12CRadioEngine19FrequencySetByRdsAfEv @ 48 NONAME
	_ZNK12CRadioEngine19GetPresetFrequencyLEi @ 49 NONAME
	_ZNK12CRadioEngine19IsFlightModeEnabledEv @ 50 NONAME
	_ZNK12CRadioEngine19RequestTunerControlEv @ 51 NONAME
	_ZNK12CRadioEngine19UpdatedStartupCountEv @ 52 NONAME
	_ZNK12CRadioEngine22IsAudioRoutingPossibleEv @ 53 NONAME
	_ZNK12CRadioEngine23FillListWithRegionDataLER12CDesC16Array @ 54 NONAME
	_ZNK12CRadioEngine7PubSubLEv @ 55 NONAME
	_ZNK12CRadioEngine8IsInCallEv @ 56 NONAME
	_ZNK12CRadioEngine8IsMuteOnEv @ 57 NONAME
	_ZNK12CRadioEngine8RegionIdEv @ 58 NONAME
	_ZNK12CRadioEngine9GetVolumeEv @ 59 NONAME
	_ZNK14CFMRadioPubSub13PublishStateLEi @ 60 NONAME
	_ZNK14CFMRadioPubSub17PublishFrequencyLEm @ 61 NONAME
	_ZNK14CFMRadioPubSub19PublishChannelNameLERK7TDesC16 @ 62 NONAME
	_ZNK14CFMRadioPubSub19PublishPresetCountLEi @ 63 NONAME
	_ZNK14CFMRadioPubSub20PublishRDSRadioTextLERK7TDesC16 @ 64 NONAME
	_ZNK14CFMRadioPubSub25PublishRDSProgramServiceLERK7TDesC16 @ 65 NONAME
	_ZNK14CFMRadioPubSub31PublishApplicationRunningStateLE33TFMRadioPSApplicationRunningState @ 66 NONAME
	_ZNK23CFMRadioRdsReceiverBase10RtPlusSongEv @ 67 NONAME
	_ZNK23CFMRadioRdsReceiverBase11RtPlusAlbumEv @ 68 NONAME
	_ZNK23CFMRadioRdsReceiverBase12RtPlusArtistEv @ 69 NONAME
	_ZNK23CFMRadioRdsReceiverBase15SignalAvailableEv @ 70 NONAME
	_ZNK23CFMRadioRdsReceiverBase16ProgrammeServiceEv @ 71 NONAME
	_ZNK23CFMRadioRdsReceiverBase16RtPlusProgramUrlEv @ 72 NONAME
	_ZNK23CFMRadioRdsReceiverBase24ProgrammeServiceNameTypeEv @ 73 NONAME
	_ZNK23CFMRadioRdsReceiverBase25AutomaticSwitchingEnabledEv @ 74 NONAME
	_ZTI12CRadioEngine @ 75 NONAME
	_ZTI14CFMRadioPubSub @ 76 NONAME
	_ZTI18CRadioStateHandler @ 77 NONAME
	_ZTI24CFMRadioPropertyObserver @ 78 NONAME
	_ZTI25CCentralRepositoryHandler @ 79 NONAME
	_ZTI25CFMRadioAccessoryObserver @ 80 NONAME
	_ZTI27CFMRadioSystemEventDetector @ 81 NONAME
	_ZTV12CRadioEngine @ 82 NONAME
	_ZTV14CFMRadioPubSub @ 83 NONAME
	_ZTV18CRadioStateHandler @ 84 NONAME
	_ZTV24CFMRadioPropertyObserver @ 85 NONAME
	_ZTV25CCentralRepositoryHandler @ 86 NONAME
	_ZTV25CFMRadioAccessoryObserver @ 87 NONAME
	_ZTV27CFMRadioSystemEventDetector @ 88 NONAME
	_ZN12CRadioEngine10PresetUrlLEiR6TDes16 @ 89 NONAME
	_ZN12CRadioEngine13DeletePresetLEi @ 90 NONAME
	_ZN12CRadioEngine16SaveUrlToPresetLEiRK7TDesC16 @ 91 NONAME

