EXPORTS
	?tr@RadioUiEngine@@SA?AVQString@@PBD0@Z @ 1 NONAME ; class QString RadioUiEngine::tr(char const *, char const *)
	?setFrequency@RadioHistoryItem@@QAEXI@Z @ 2 NONAME ; void RadioHistoryItem::setFrequency(unsigned int)
	?currentStation@RadioStationModel@@QBEABVRadioStation@@XZ @ 3 NONAME ; class RadioStation const & RadioStationModel::currentStation(void) const
	?rowCount@RadioHistoryModel@@UBEHABVQModelIndex@@@Z @ 4 NONAME ; int RadioHistoryModel::rowCount(class QModelIndex const &) const
	?contains@RadioStationModel@@QBE_NI@Z @ 5 NONAME ; bool RadioStationModel::contains(unsigned int) const
	?qt_metacast@RadioUiEngine@@UAEPAXPBD@Z @ 6 NONAME ; void * RadioUiEngine::qt_metacast(char const *)
	?parseFrequency@RadioStation@@SA?AVQString@@I@Z @ 7 NONAME ; class QString RadioStation::parseFrequency(unsigned int)
	??0RadioStation@@QAE@ABV0@@Z @ 8 NONAME ; RadioStation::RadioStation(class RadioStation const &)
	?skipStation@RadioUiEngine@@QAEIW4Mode@StationSkip@@I@Z @ 9 NONAME ; unsigned int RadioUiEngine::skipStation(enum StationSkip::Mode, unsigned int)
	?region@RadioUiEngine@@QBE?AW4Region@RadioRegion@@XZ @ 10 NONAME ; enum RadioRegion::Region RadioUiEngine::region(void) const
	?frequency@RadioStation@@QBEIXZ @ 11 NONAME ; unsigned int RadioStation::frequency(void) const
	?setFavoriteByFrequency@RadioStationModel@@QAEXI_N@Z @ 12 NONAME ; void RadioStationModel::setFavoriteByFrequency(unsigned int, bool)
	??_ERadioHistoryItem@@UAE@I@Z @ 13 NONAME ; RadioHistoryItem::~RadioHistoryItem(unsigned int)
	?isInitialized@RadioUiEngine@@QBE_NXZ @ 14 NONAME ; bool RadioUiEngine::isInitialized(void) const
	?staticMetaObject@RadioUiEngine@@2UQMetaObject@@B @ 15 NONAME ; struct QMetaObject const RadioUiEngine::staticMetaObject
	?indexFromFrequency@RadioStationModel@@QAEHI@Z @ 16 NONAME ; int RadioStationModel::indexFromFrequency(unsigned int)
	?stationsInRange@RadioStationModel@@QAE?AV?$QList@VRadioStation@@@@II@Z @ 17 NONAME ; class QList<class RadioStation> RadioStationModel::stationsInRange(unsigned int, unsigned int)
	?setName@RadioStation@@QAEXABVQString@@@Z @ 18 NONAME ; void RadioStation::setName(class QString const &)
	?settings@RadioUiEngine@@QAEAAVRadioSettingsIf@@XZ @ 19 NONAME ; class RadioSettingsIf & RadioUiEngine::settings(void)
	?emitAntennaStatusChanged@RadioUiEngine@@AAEX_N@Z @ 20 NONAME ; void RadioUiEngine::emitAntennaStatusChanged(bool)
	?hasPiCode@RadioStation@@QBE_NXZ @ 21 NONAME ; bool RadioStation::hasPiCode(void) const
	??_ERadioScannerEngine@@UAE@I@Z @ 22 NONAME ; RadioScannerEngine::~RadioScannerEngine(unsigned int)
	?setFavoriteByPreset@RadioStationModel@@QAEXH_N@Z @ 23 NONAME ; void RadioStationModel::setFavoriteByPreset(int, bool)
	?rdsAvailabilityChanged@RadioUiEngine@@IAEX_N@Z @ 24 NONAME ; void RadioUiEngine::rdsAvailabilityChanged(bool)
	?decrementReferenceCount@RadioHistoryItem@@AAEXXZ @ 25 NONAME ; void RadioHistoryItem::decrementReferenceCount(void)
	?findPresetIndex@RadioStationModel@@QAEHHAAVRadioStation@@@Z @ 26 NONAME ; int RadioStationModel::findPresetIndex(int, class RadioStation &)
	?stationHandlerIf@RadioStationModel@@QAEAAVRadioStationHandlerIf@@XZ @ 27 NONAME ; class RadioStationHandlerIf & RadioStationModel::stationHandlerIf(void)
	?qt_metacall@RadioHistoryModel@@UAEHW4Call@QMetaObject@@HPAPAX@Z @ 28 NONAME ; int RadioHistoryModel::qt_metacall(enum QMetaObject::Call, int, void * *)
	?emitVolumeChanged@RadioUiEngine@@AAEXH@Z @ 29 NONAME ; void RadioUiEngine::emitVolumeChanged(int)
	?qt_metacall@RadioUiEngine@@UAEHW4Call@QMetaObject@@HPAPAX@Z @ 30 NONAME ; int RadioUiEngine::qt_metacall(enum QMetaObject::Call, int, void * *)
	?emitAudioRouteChanged@RadioUiEngine@@AAEX_N@Z @ 31 NONAME ; void RadioUiEngine::emitAudioRouteChanged(bool)
	?addItem@RadioHistoryModel@@AAEXABVQString@@0ABVRadioStation@@@Z @ 32 NONAME ; void RadioHistoryModel::addItem(class QString const &, class QString const &, class RadioStation const &)
	?d_func@RadioScannerEngine@@ABEPBVRadioScannerEnginePrivate@@XZ @ 33 NONAME ; class RadioScannerEnginePrivate const * RadioScannerEngine::d_func(void) const
	?setGenre@RadioStation@@QAEXH@Z @ 34 NONAME ; void RadioStation::setGenre(int)
	??4RadioStation@@QAEAAV0@ABV0@@Z @ 35 NONAME ; class RadioStation & RadioStation::operator=(class RadioStation const &)
	?toggleAudioRoute@RadioUiEngine@@QAEXXZ @ 36 NONAME ; void RadioUiEngine::toggleAudioRoute(void)
	?stationModel@RadioUiEngine@@QAEAAVRadioStationModel@@XZ @ 37 NONAME ; class RadioStationModel & RadioUiEngine::stationModel(void)
	?unsetType@RadioStation@@QAEXV?$QFlags@W4TypeFlag@RadioStation@@@@@Z @ 38 NONAME ; void RadioStation::unsetType(class QFlags<enum RadioStation::TypeFlag>)
	?toggleTagging@RadioHistoryModel@@QAEXABVRadioHistoryItem@@H@Z @ 39 NONAME ; void RadioHistoryModel::toggleTagging(class RadioHistoryItem const &, int)
	?muteChanged@RadioUiEngine@@IAEX_N@Z @ 40 NONAME ; void RadioUiEngine::muteChanged(bool)
	?maxFrequency@RadioUiEngine@@QBEIXZ @ 41 NONAME ; unsigned int RadioUiEngine::maxFrequency(void) const
	?setIcons@RadioStationModel@@QAEXABVQIcon@@0@Z @ 42 NONAME ; void RadioStationModel::setIcons(class QIcon const &, class QIcon const &)
	?saveStation@RadioStationModel@@QAEXAAVRadioStation@@@Z @ 43 NONAME ; void RadioStationModel::saveStation(class RadioStation &)
	?getStaticMetaObject@RadioHistoryModel@@SAABUQMetaObject@@XZ @ 44 NONAME ; struct QMetaObject const & RadioHistoryModel::getStaticMetaObject(void)
	?findUnusedPresetIndex@RadioStationModel@@AAEHXZ @ 45 NONAME ; int RadioStationModel::findUnusedPresetIndex(void)
	?hasChanged@RadioStation@@QBE_NXZ @ 46 NONAME ; bool RadioStation::hasChanged(void) const
	?trUtf8@RadioScannerEngine@@SA?AVQString@@PBD0H@Z @ 47 NONAME ; class QString RadioScannerEngine::trUtf8(char const *, char const *, int)
	?isScanning@RadioUiEngine@@QBE_NXZ @ 48 NONAME ; bool RadioUiEngine::isScanning(void) const
	?dynamicPsCheckEnded@RadioStationModel@@AAEXXZ @ 49 NONAME ; void RadioStationModel::dynamicPsCheckEnded(void)
	?d_func@RadioHistoryModel@@AAEPAVRadioHistoryModelPrivate@@XZ @ 50 NONAME ; class RadioHistoryModelPrivate * RadioHistoryModel::d_func(void)
	?piCodeToCallSign@RadioStation@@AAE?AVQString@@I@Z @ 51 NONAME ; class QString RadioStation::piCodeToCallSign(unsigned int)
	?seekStation@RadioUiEngine@@QAEXH@Z @ 52 NONAME ; void RadioUiEngine::seekStation(int)
	?setPiCode@RadioStation@@QAE_NHW4Region@RadioRegion@@@Z @ 53 NONAME ; bool RadioStation::setPiCode(int, enum RadioRegion::Region)
	?favoriteChanged@RadioStationModel@@IAEXABVRadioStation@@@Z @ 54 NONAME ; void RadioStationModel::favoriteChanged(class RadioStation const &)
	?radioStatusChanged@RadioUiEngine@@IAEX_N@Z @ 55 NONAME ; void RadioUiEngine::radioStatusChanged(bool)
	?setIcons@RadioHistoryModel@@QAEXABVQIcon@@0@Z @ 56 NONAME ; void RadioHistoryModel::setIcons(class QIcon const &, class QIcon const &)
	?isCurrentSongRecognized@RadioHistoryModel@@QBE_NXZ @ 57 NONAME ; bool RadioHistoryModel::isCurrentSongRecognized(void) const
	?clearRadioTextPlus@RadioHistoryModel@@AAEXXZ @ 58 NONAME ; void RadioHistoryModel::clearRadioTextPlus(void)
	?addStation@RadioStationModel@@QAEXABVRadioStation@@@Z @ 59 NONAME ; void RadioStationModel::addStation(class RadioStation const &)
	?lastTunedFrequency@RadioUiEngine@@SAIXZ @ 60 NONAME ; unsigned int RadioUiEngine::lastTunedFrequency(void)
	?favoriteCount@RadioStationModel@@QAEHXZ @ 61 NONAME ; int RadioStationModel::favoriteCount(void)
	??1RadioScannerEngine@@UAE@XZ @ 62 NONAME ; RadioScannerEngine::~RadioScannerEngine(void)
	?tunedToFrequency@RadioUiEngine@@IAEXIH@Z @ 63 NONAME ; void RadioUiEngine::tunedToFrequency(unsigned int, int)
	?tr@RadioUiEngine@@SA?AVQString@@PBD0H@Z @ 64 NONAME ; class QString RadioUiEngine::tr(char const *, char const *, int)
	?isScanning@RadioScannerEngine@@QBE_NXZ @ 65 NONAME ; bool RadioScannerEngine::isScanning(void) const
	?trUtf8@RadioScannerEngine@@SA?AVQString@@PBD0@Z @ 66 NONAME ; class QString RadioScannerEngine::trUtf8(char const *, char const *)
	?emitDataChanged@RadioStationModel@@AAEXABVRadioStation@@@Z @ 67 NONAME ; void RadioStationModel::emitDataChanged(class RadioStation const &)
	?setPowerOff@RadioUiEngine@@QAEXH@Z @ 68 NONAME ; void RadioUiEngine::setPowerOff(int)
	?isRadioOn@RadioUiEngine@@QBE_NXZ @ 69 NONAME ; bool RadioUiEngine::isRadioOn(void) const
	?continueScanning@RadioScannerEngine@@QAEXXZ @ 70 NONAME ; void RadioScannerEngine::continueScanning(void)
	?trUtf8@RadioHistoryModel@@SA?AVQString@@PBD0H@Z @ 71 NONAME ; class QString RadioHistoryModel::trUtf8(char const *, char const *, int)
	?list@RadioStationModel@@QBEABV?$QMap@IVRadioStation@@@@XZ @ 72 NONAME ; class QMap<unsigned int, class RadioStation> const & RadioStationModel::list(void) const
	?tr@RadioStationModel@@SA?AVQString@@PBD0@Z @ 73 NONAME ; class QString RadioStationModel::tr(char const *, char const *)
	?setChangeFlags@RadioStation@@QAEXV?$QFlags@W4ChangeFlag@RadioStation@@@@@Z @ 74 NONAME ; void RadioStation::setChangeFlags(class QFlags<enum RadioStation::ChangeFlag>)
	?hasRds@RadioStation@@QBE_NXZ @ 75 NONAME ; bool RadioStation::hasRds(void) const
	?findClosest@RadioStationModel@@QAE?AVRadioStation@@IW4Mode@StationSkip@@@Z @ 76 NONAME ; class RadioStation RadioStationModel::findClosest(unsigned int, enum StationSkip::Mode)
	?flags@RadioStationModel@@UBE?AV?$QFlags@W4ItemFlag@Qt@@@@ABVQModelIndex@@@Z @ 77 NONAME ; class QFlags<enum Qt::ItemFlag> RadioStationModel::flags(class QModelIndex const &) const
	?detach@RadioStation@@QAEXXZ @ 78 NONAME ; void RadioStation::detach(void)
	?staticMetaObject@RadioScannerEngine@@2UQMetaObject@@B @ 79 NONAME ; struct QMetaObject const RadioScannerEngine::staticMetaObject
	?id@RadioHistoryItem@@QBEHXZ @ 80 NONAME ; int RadioHistoryItem::id(void) const
	?stationsInRange@RadioUiEngine@@QAE?AV?$QList@VRadioStation@@@@II@Z @ 81 NONAME ; class QList<class RadioStation> RadioUiEngine::stationsInRange(unsigned int, unsigned int)
	?trUtf8@RadioUiEngine@@SA?AVQString@@PBD0@Z @ 82 NONAME ; class QString RadioUiEngine::trUtf8(char const *, char const *)
	?tr@RadioScannerEngine@@SA?AVQString@@PBD0H@Z @ 83 NONAME ; class QString RadioScannerEngine::tr(char const *, char const *, int)
	?radioText@RadioStation@@QBE?AVQString@@XZ @ 84 NONAME ; class QString RadioStation::radioText(void) const
	?setData@RadioStationModel@@UAE_NABVQModelIndex@@ABVQVariant@@H@Z @ 85 NONAME ; bool RadioStationModel::setData(class QModelIndex const &, class QVariant const &, int)
	??0RadioStation@@QAE@HI@Z @ 86 NONAME ; RadioStation::RadioStation(int, unsigned int)
	?isInManualSeekMode@RadioUiEngine@@QBE_NXZ @ 87 NONAME ; bool RadioUiEngine::isInManualSeekMode(void) const
	?setPsType@RadioStation@@QAEXV?$QFlags@W4PsTypeFlag@RadioStation@@@@@Z @ 88 NONAME ; void RadioStation::setPsType(class QFlags<enum RadioStation::PsTypeFlag>)
	?itemAtIndex@RadioHistoryModel@@QBE?AVRadioHistoryItem@@ABVQModelIndex@@@Z @ 89 NONAME ; class RadioHistoryItem RadioHistoryModel::itemAtIndex(class QModelIndex const &) const
	?setVolume@RadioUiEngine@@QAEXH@Z @ 90 NONAME ; void RadioUiEngine::setVolume(int)
	?setFavorite@RadioStation@@QAEX_N@Z @ 91 NONAME ; void RadioStation::setFavorite(bool)
	?emitChangeSignals@RadioStationModel@@AAEXABVRadioStation@@V?$QFlags@W4ChangeFlag@RadioStation@@@@@Z @ 92 NONAME ; void RadioStationModel::emitChangeSignals(class RadioStation const &, class QFlags<enum RadioStation::ChangeFlag>)
	?d_func@RadioStationModel@@ABEPBVRadioStationModelPrivate@@XZ @ 93 NONAME ; class RadioStationModelPrivate const * RadioStationModel::d_func(void) const
	?setPresetIndex@RadioStation@@QAEXH@Z @ 94 NONAME ; void RadioStation::setPresetIndex(int)
	?tr@RadioStationModel@@SA?AVQString@@PBD0H@Z @ 95 NONAME ; class QString RadioStationModel::tr(char const *, char const *, int)
	??1RadioStationModel@@UAE@XZ @ 96 NONAME ; RadioStationModel::~RadioStationModel(void)
	?isMuted@RadioUiEngine@@QBE_NXZ @ 97 NONAME ; bool RadioUiEngine::isMuted(void) const
	?renameStation@RadioStationModel@@QAEXHABVQString@@@Z @ 98 NONAME ; void RadioStationModel::renameStation(int, class QString const &)
	?emitItemAdded@RadioHistoryModel@@AAEXXZ @ 99 NONAME ; void RadioHistoryModel::emitItemAdded(void)
	?currentFrequency@RadioUiEngine@@QBEIXZ @ 100 NONAME ; unsigned int RadioUiEngine::currentFrequency(void) const
	?setUserDefinedName@RadioStation@@QAEXABVQString@@@Z @ 101 NONAME ; void RadioStation::setUserDefinedName(class QString const &)
	??1RadioStation@@UAE@XZ @ 102 NONAME ; RadioStation::~RadioStation(void)
	?getStaticMetaObject@RadioScannerEngine@@SAABUQMetaObject@@XZ @ 103 NONAME ; struct QMetaObject const & RadioScannerEngine::getStaticMetaObject(void)
	?callSignString@RadioStation@@AAE?AVQString@@I@Z @ 104 NONAME ; class QString RadioStation::callSignString(unsigned int)
	?isValid@RadioStation@@QBE_NXZ @ 105 NONAME ; bool RadioStation::isValid(void) const
	?decrementReferenceCount@RadioStation@@AAEXXZ @ 106 NONAME ; void RadioStation::decrementReferenceCount(void)
	?trUtf8@RadioUiEngine@@SA?AVQString@@PBD0H@Z @ 107 NONAME ; class QString RadioUiEngine::trUtf8(char const *, char const *, int)
	?reset@RadioHistoryItem@@QAEXXZ @ 108 NONAME ; void RadioHistoryItem::reset(void)
	?trUtf8@RadioStationModel@@SA?AVQString@@PBD0@Z @ 109 NONAME ; class QString RadioStationModel::trUtf8(char const *, char const *)
	??0RadioStationModel@@QAE@AAVRadioUiEnginePrivate@@@Z @ 110 NONAME ; RadioStationModel::RadioStationModel(class RadioUiEnginePrivate &)
	?stationDataChanged@RadioStationModel@@IAEXABVRadioStation@@@Z @ 111 NONAME ; void RadioStationModel::stationDataChanged(class RadioStation const &)
	?frequency@RadioHistoryItem@@QBEIXZ @ 112 NONAME ; unsigned int RadioHistoryItem::frequency(void) const
	?currentStation@RadioStationModel@@QAEAAVRadioStation@@XZ @ 113 NONAME ; class RadioStation & RadioStationModel::currentStation(void)
	?isDetached@RadioHistoryItem@@QBE_NXZ @ 114 NONAME ; bool RadioHistoryItem::isDetached(void) const
	?genre@RadioStation@@QBEHXZ @ 115 NONAME ; int RadioStation::genre(void) const
	?reset@RadioStation@@QAEXXZ @ 116 NONAME ; void RadioStation::reset(void)
	?qt_metacall@RadioScannerEngine@@UAEHW4Call@QMetaObject@@HPAPAX@Z @ 117 NONAME ; int RadioScannerEngine::qt_metacall(enum QMetaObject::Call, int, void * *)
	?emitTunedToFrequency@RadioUiEngine@@AAEXIH@Z @ 118 NONAME ; void RadioUiEngine::emitTunedToFrequency(unsigned int, int)
	??0RadioStation@@QAE@XZ @ 119 NONAME ; RadioStation::RadioStation(void)
	?psType@RadioStation@@QBE?AV?$QFlags@W4PsTypeFlag@RadioStation@@@@XZ @ 120 NONAME ; class QFlags<enum RadioStation::PsTypeFlag> RadioStation::psType(void) const
	??1RadioHistoryModel@@UAE@XZ @ 121 NONAME ; RadioHistoryModel::~RadioHistoryModel(void)
	?d_func@RadioUiEngine@@ABEPBVRadioUiEnginePrivate@@XZ @ 122 NONAME ; class RadioUiEnginePrivate const * RadioUiEngine::d_func(void) const
	?scannerEngine@RadioUiEngine@@QAEPAVRadioScannerEngine@@XZ @ 123 NONAME ; class RadioScannerEngine * RadioUiEngine::scannerEngine(void)
	?setManualSeekMode@RadioUiEngine@@QAEX_N@Z @ 124 NONAME ; void RadioUiEngine::setManualSeekMode(bool)
	?isSongRecognitionAppAvailable@RadioUiEngine@@QAE_NXZ @ 125 NONAME ; bool RadioUiEngine::isSongRecognitionAppAvailable(void)
	?startScanning@RadioScannerEngine@@QAEXXZ @ 126 NONAME ; void RadioScannerEngine::startScanning(void)
	?emitStationFound@RadioScannerEngine@@AAEXABVRadioStation@@@Z @ 127 NONAME ; void RadioScannerEngine::emitStationFound(class RadioStation const &)
	?isValid@RadioHistoryItem@@QBE_NXZ @ 128 NONAME ; bool RadioHistoryItem::isValid(void) const
	?findCurrentStation@RadioStationModel@@AAE?AVRadioStation@@I@Z @ 129 NONAME ; class RadioStation RadioStationModel::findCurrentStation(unsigned int)
	?setUrl@RadioStation@@QAEXABVQString@@@Z @ 130 NONAME ; void RadioStation::setUrl(class QString const &)
	?setFrequency@RadioUiEngine@@QAEXIH@Z @ 131 NONAME ; void RadioUiEngine::setFrequency(unsigned int, int)
	?data@RadioHistoryModel@@UBE?AVQVariant@@ABVQModelIndex@@H@Z @ 132 NONAME ; class QVariant RadioHistoryModel::data(class QModelIndex const &, int) const
	??4RadioHistoryItem@@QAEAAV0@ABV0@@Z @ 133 NONAME ; class RadioHistoryItem & RadioHistoryItem::operator=(class RadioHistoryItem const &)
	?url@RadioStation@@QBE?AVQString@@XZ @ 134 NONAME ; class QString RadioStation::url(void) const
	?historyModel@RadioUiEngine@@QAEAAVRadioHistoryModel@@XZ @ 135 NONAME ; class RadioHistoryModel & RadioUiEngine::historyModel(void)
	?emitRdsAvailabilityChanged@RadioUiEngine@@AAEX_N@Z @ 136 NONAME ; void RadioUiEngine::emitRdsAvailabilityChanged(bool)
	?frequencyMhz@RadioStation@@QBE?AVQString@@XZ @ 137 NONAME ; class QString RadioStation::frequencyMhz(void) const
	?isAntennaAttached@RadioUiEngine@@QBE_NXZ @ 138 NONAME ; bool RadioUiEngine::isAntennaAttached(void) const
	?setStation@RadioHistoryItem@@QAEXABVQString@@@Z @ 139 NONAME ; void RadioHistoryItem::setStation(class QString const &)
	?qt_metacast@RadioStationModel@@UAEPAXPBD@Z @ 140 NONAME ; void * RadioStationModel::qt_metacast(char const *)
	?presetIndex@RadioStation@@QBEHXZ @ 141 NONAME ; int RadioStation::presetIndex(void) const
	?cancel@RadioScannerEngine@@QAEXXZ @ 142 NONAME ; void RadioScannerEngine::cancel(void)
	?staticMetaObject@RadioStationModel@@2UQMetaObject@@B @ 143 NONAME ; struct QMetaObject const RadioStationModel::staticMetaObject
	?addRecognizedSong@RadioUiEngine@@QAEXABVQString@@0ABVRadioStation@@@Z @ 144 NONAME ; void RadioUiEngine::addRecognizedSong(class QString const &, class QString const &, class RadioStation const &)
	?emitMuteChanged@RadioUiEngine@@AAEX_N@Z @ 145 NONAME ; void RadioUiEngine::emitMuteChanged(bool)
	?currentSongReset@RadioHistoryModel@@IAEXXZ @ 146 NONAME ; void RadioHistoryModel::currentSongReset(void)
	?removeByPresetIndex@RadioStationModel@@QAEXH@Z @ 147 NONAME ; void RadioStationModel::removeByPresetIndex(int)
	?d_func@RadioScannerEngine@@AAEPAVRadioScannerEnginePrivate@@XZ @ 148 NONAME ; class RadioScannerEnginePrivate * RadioScannerEngine::d_func(void)
	?setFrequency@RadioStation@@QAEXI@Z @ 149 NONAME ; void RadioStation::setFrequency(unsigned int)
	?isRenamed@RadioStation@@QBE_NXZ @ 150 NONAME ; bool RadioStation::isRenamed(void) const
	?stationAt@RadioStationModel@@QBE?AVRadioStation@@H@Z @ 151 NONAME ; class RadioStation RadioStationModel::stationAt(int) const
	?removeStation@RadioStationModel@@QAEXABVRadioStation@@@Z @ 152 NONAME ; void RadioStationModel::removeStation(class RadioStation const &)
	?openMusicStore@RadioUiEngine@@QAEXABVRadioHistoryItem@@W4MusicStore@1@@Z @ 153 NONAME ; void RadioUiEngine::openMusicStore(class RadioHistoryItem const &, enum RadioUiEngine::MusicStore)
	?metaObject@RadioUiEngine@@UBEPBUQMetaObject@@XZ @ 154 NONAME ; struct QMetaObject const * RadioUiEngine::metaObject(void) const
	?dynamicPsChanged@RadioStationModel@@IAEXABVRadioStation@@@Z @ 155 NONAME ; void RadioStationModel::dynamicPsChanged(class RadioStation const &)
	?setType@RadioStation@@QAEXV?$QFlags@W4TypeFlag@RadioStation@@@@@Z @ 156 NONAME ; void RadioStation::setType(class QFlags<enum RadioStation::TypeFlag>)
	??0RadioHistoryItem@@QAE@XZ @ 157 NONAME ; RadioHistoryItem::RadioHistoryItem(void)
	?removeByFrequency@RadioStationModel@@QAEXI@Z @ 158 NONAME ; void RadioStationModel::removeByFrequency(unsigned int)
	?isUsingLoudspeaker@RadioUiEngine@@QBE_NXZ @ 159 NONAME ; bool RadioUiEngine::isUsingLoudspeaker(void) const
	?findFrequency@RadioStationModel@@QBE_NIAAVRadioStation@@@Z @ 160 NONAME ; bool RadioStationModel::findFrequency(unsigned int, class RadioStation &) const
	?findPresetIndex@RadioStationModel@@QAEHH@Z @ 161 NONAME ; int RadioStationModel::findPresetIndex(int)
	?setRadioTextPlus@RadioStation@@QAEXHABVQString@@@Z @ 162 NONAME ; void RadioStation::setRadioTextPlus(int, class QString const &)
	??0RadioHistoryItem@@QAE@ABV0@@Z @ 163 NONAME ; RadioHistoryItem::RadioHistoryItem(class RadioHistoryItem const &)
	?metaObject@RadioStationModel@@UBEPBUQMetaObject@@XZ @ 164 NONAME ; struct QMetaObject const * RadioStationModel::metaObject(void) const
	?getStaticMetaObject@RadioStationModel@@SAABUQMetaObject@@XZ @ 165 NONAME ; struct QMetaObject const & RadioStationModel::getStaticMetaObject(void)
	?isPoweringOff@RadioUiEngine@@QBE_NXZ @ 166 NONAME ; bool RadioUiEngine::isPoweringOff(void) const
	?tr@RadioScannerEngine@@SA?AVQString@@PBD0@Z @ 167 NONAME ; class QString RadioScannerEngine::tr(char const *, char const *)
	?removeAll@RadioHistoryModel@@QAEX_N@Z @ 168 NONAME ; void RadioHistoryModel::removeAll(bool)
	?audioRouteChanged@RadioUiEngine@@IAEX_N@Z @ 169 NONAME ; void RadioUiEngine::audioRouteChanged(bool)
	?setPowerOn@RadioUiEngine@@QAEXXZ @ 170 NONAME ; void RadioUiEngine::setPowerOn(void)
	?tr@RadioHistoryModel@@SA?AVQString@@PBD0H@Z @ 171 NONAME ; class QString RadioHistoryModel::tr(char const *, char const *, int)
	?dynamicPsText@RadioStation@@QBE?AVQString@@XZ @ 172 NONAME ; class QString RadioStation::dynamicPsText(void) const
	?isFirstTimeStart@RadioUiEngine@@QAE_NXZ @ 173 NONAME ; bool RadioUiEngine::isFirstTimeStart(void)
	?setMute@RadioUiEngine@@QAEX_N@Z @ 174 NONAME ; void RadioUiEngine::setMute(bool)
	?createScannerEngine@RadioUiEngine@@QAEPAVRadioScannerEngine@@XZ @ 175 NONAME ; class RadioScannerEngine * RadioUiEngine::createScannerEngine(void)
	??0RadioScannerEngine@@QAE@AAVRadioUiEnginePrivate@@@Z @ 176 NONAME ; RadioScannerEngine::RadioScannerEngine(class RadioUiEnginePrivate &)
	?emitRadioStatusChanged@RadioUiEngine@@AAEX_N@Z @ 177 NONAME ; void RadioUiEngine::emitRadioStatusChanged(bool)
	??_ERadioUiEngine@@UAE@I@Z @ 178 NONAME ; RadioUiEngine::~RadioUiEngine(unsigned int)
	?init@RadioUiEngine@@QAE_NXZ @ 179 NONAME ; bool RadioUiEngine::init(void)
	?setDynamicPsText@RadioStation@@QAEXABVQString@@@Z @ 180 NONAME ; void RadioStation::setDynamicPsText(class QString const &)
	?changeFlags@RadioStation@@QBE?AV?$QFlags@W4ChangeFlag@RadioStation@@@@XZ @ 181 NONAME ; class QFlags<enum RadioStation::ChangeFlag> RadioStation::changeFlags(void) const
	?d_func@RadioStationModel@@AAEPAVRadioStationModelPrivate@@XZ @ 182 NONAME ; class RadioStationModelPrivate * RadioStationModel::d_func(void)
	?addRadioTextPlus@RadioHistoryModel@@AAEXHABVQString@@ABVRadioStation@@@Z @ 183 NONAME ; void RadioHistoryModel::addRadioTextPlus(int, class QString const &, class RadioStation const &)
	?qt_metacast@RadioHistoryModel@@UAEPAXPBD@Z @ 184 NONAME ; void * RadioHistoryModel::qt_metacast(char const *)
	?nameOrFrequencyMhz@RadioStation@@QBE?AVQString@@XZ @ 185 NONAME ; class QString RadioStation::nameOrFrequencyMhz(void) const
	?setDetail@RadioStationModel@@QAEXV?$QFlags@W4DetailFlag@RadioStationModel@@@@@Z @ 186 NONAME ; void RadioStationModel::setDetail(class QFlags<enum RadioStationModel::DetailFlag>)
	??1RadioUiEngine@@UAE@XZ @ 187 NONAME ; RadioUiEngine::~RadioUiEngine(void)
	?tr@RadioHistoryModel@@SA?AVQString@@PBD0@Z @ 188 NONAME ; class QString RadioHistoryModel::tr(char const *, char const *)
	?time@RadioHistoryItem@@QBE?AVQString@@XZ @ 189 NONAME ; class QString RadioHistoryItem::time(void) const
	?reportChangedData@RadioHistoryModel@@AAEXHH@Z @ 190 NONAME ; void RadioHistoryModel::reportChangedData(int, int)
	?artist@RadioHistoryItem@@QBE?AVQString@@XZ @ 191 NONAME ; class QString RadioHistoryItem::artist(void) const
	?initialize@RadioStationModel@@QAEXPAVRadioPresetStorage@@PAVRadioEngineWrapper@@@Z @ 192 NONAME ; void RadioStationModel::initialize(class RadioPresetStorage *, class RadioEngineWrapper *)
	?isType@RadioStation@@QBE_NV?$QFlags@W4TypeFlag@RadioStation@@@@@Z @ 193 NONAME ; bool RadioStation::isType(class QFlags<enum RadioStation::TypeFlag>) const
	?resetCurrentSong@RadioHistoryModel@@QAEXXZ @ 194 NONAME ; void RadioHistoryModel::resetCurrentSong(void)
	?d_func@RadioHistoryModel@@ABEPBVRadioHistoryModelPrivate@@XZ @ 195 NONAME ; class RadioHistoryModelPrivate const * RadioHistoryModel::d_func(void) const
	?volumeChanged@RadioUiEngine@@IAEXH@Z @ 196 NONAME ; void RadioUiEngine::volumeChanged(int)
	?title@RadioHistoryItem@@QBE?AVQString@@XZ @ 197 NONAME ; class QString RadioHistoryItem::title(void) const
	?stationFound@RadioScannerEngine@@IAEXABVRadioStation@@@Z @ 198 NONAME ; void RadioScannerEngine::stationFound(class RadioStation const &)
	?resetChangeFlags@RadioStation@@QAEXXZ @ 199 NONAME ; void RadioStation::resetChangeFlags(void)
	?data_ptr@RadioStation@@QAEAAPAVRadioStationPrivate@@XZ @ 200 NONAME ; class RadioStationPrivate * & RadioStation::data_ptr(void)
	?powerOffRequested@RadioUiEngine@@IAEXXZ @ 201 NONAME ; void RadioUiEngine::powerOffRequested(void)
	?metaObject@RadioScannerEngine@@UBEPBUQMetaObject@@XZ @ 202 NONAME ; struct QMetaObject const * RadioScannerEngine::metaObject(void) const
	?qt_metacast@RadioScannerEngine@@UAEPAXPBD@Z @ 203 NONAME ; void * RadioScannerEngine::qt_metacast(char const *)
	?callSignChar@RadioStation@@AAEDI@Z @ 204 NONAME ; char RadioStation::callSignChar(unsigned int)
	??_ERadioStation@@UAE@I@Z @ 205 NONAME ; RadioStation::~RadioStation(unsigned int)
	??1RadioHistoryItem@@UAE@XZ @ 206 NONAME ; RadioHistoryItem::~RadioHistoryItem(void)
	?detach@RadioHistoryItem@@QAEXXZ @ 207 NONAME ; void RadioHistoryItem::detach(void)
	?antennaStatusChanged@RadioUiEngine@@IAEX_N@Z @ 208 NONAME ; void RadioUiEngine::antennaStatusChanged(bool)
	?staticMetaObject@RadioHistoryModel@@2UQMetaObject@@B @ 209 NONAME ; struct QMetaObject const RadioHistoryModel::staticMetaObject
	?setFirstTimeStartPerformed@RadioUiEngine@@QAEX_N@Z @ 210 NONAME ; void RadioUiEngine::setFirstTimeStartPerformed(bool)
	?qt_metacall@RadioStationModel@@UAEHW4Call@QMetaObject@@HPAPAX@Z @ 211 NONAME ; int RadioStationModel::qt_metacall(enum QMetaObject::Call, int, void * *)
	?isDetached@RadioStation@@QBE_NXZ @ 212 NONAME ; bool RadioStation::isDetached(void) const
	?setRadioText@RadioStation@@QAEXABVQString@@@Z @ 213 NONAME ; void RadioStation::setRadioText(class QString const &)
	??0RadioHistoryItem@@QAE@ABVQString@@0@Z @ 214 NONAME ; RadioHistoryItem::RadioHistoryItem(class QString const &, class QString const &)
	?name@RadioStation@@QBE?AVQString@@XZ @ 215 NONAME ; class QString RadioStation::name(void) const
	?hasDataChanged@RadioStation@@QBE_NV?$QFlags@W4ChangeFlag@RadioStation@@@@@Z @ 216 NONAME ; bool RadioStation::hasDataChanged(class QFlags<enum RadioStation::ChangeFlag>) const
	?removeAll@RadioStationModel@@QAEXW4RemoveMode@1@@Z @ 217 NONAME ; void RadioStationModel::removeAll(enum RadioStationModel::RemoveMode)
	?data@RadioStationModel@@UBE?AVQVariant@@ABVQModelIndex@@H@Z @ 218 NONAME ; class QVariant RadioStationModel::data(class QModelIndex const &, int) const
	?itemAdded@RadioHistoryModel@@IAEXXZ @ 219 NONAME ; void RadioHistoryModel::itemAdded(void)
	?data_ptr@RadioHistoryItem@@QAEAAPAVRadioHistoryItemPrivate@@XZ @ 220 NONAME ; class RadioHistoryItemPrivate * & RadioHistoryItem::data_ptr(void)
	?getStaticMetaObject@RadioUiEngine@@SAABUQMetaObject@@XZ @ 221 NONAME ; struct QMetaObject const & RadioUiEngine::getStaticMetaObject(void)
	?setShowDetails@RadioHistoryModel@@QAEX_N@Z @ 222 NONAME ; void RadioHistoryModel::setShowDetails(bool)
	?launchSongRecognition@RadioUiEngine@@QAEXXZ @ 223 NONAME ; void RadioUiEngine::launchSongRecognition(void)
	?rowCount@RadioStationModel@@UBEHABVQModelIndex@@@Z @ 224 NONAME ; int RadioStationModel::rowCount(class QModelIndex const &) const
	?iterateCallSign@RadioStation@@AAE?AVQString@@HH@Z @ 225 NONAME ; class QString RadioStation::iterateCallSign(int, int)
	?toggleMute@RadioUiEngine@@QAEXXZ @ 226 NONAME ; void RadioUiEngine::toggleMute(void)
	?genreToString@RadioUiEngine@@QAE?AVQString@@HW4Target@GenreTarget@@@Z @ 227 NONAME ; class QString RadioUiEngine::genreToString(int, enum GenreTarget::Target)
	??0RadioUiEngine@@QAE@PAVQObject@@@Z @ 228 NONAME ; RadioUiEngine::RadioUiEngine(class QObject *)
	?setCurrentTime@RadioHistoryItem@@QAEXXZ @ 229 NONAME ; void RadioHistoryItem::setCurrentTime(void)
	?d_func@RadioUiEngine@@AAEPAVRadioUiEnginePrivate@@XZ @ 230 NONAME ; class RadioUiEnginePrivate * RadioUiEngine::d_func(void)
	?station@RadioHistoryItem@@QBE?AVQString@@XZ @ 231 NONAME ; class QString RadioHistoryItem::station(void) const
	??_ERadioHistoryModel@@UAE@I@Z @ 232 NONAME ; RadioHistoryModel::~RadioHistoryModel(unsigned int)
	?minFrequency@RadioUiEngine@@QBEIXZ @ 233 NONAME ; unsigned int RadioUiEngine::minFrequency(void) const
	?isTagged@RadioHistoryItem@@QBE_NXZ @ 234 NONAME ; bool RadioHistoryItem::isTagged(void) const
	?addScannedFrequency@RadioScannerEngine@@QAEXI@Z @ 235 NONAME ; void RadioScannerEngine::addScannedFrequency(unsigned int)
	?setShowTagged@RadioHistoryModel@@QAEX_N@Z @ 236 NONAME ; void RadioHistoryModel::setShowTagged(bool)
	?trUtf8@RadioHistoryModel@@SA?AVQString@@PBD0@Z @ 237 NONAME ; class QString RadioHistoryModel::trUtf8(char const *, char const *)
	?frequencyStepSize@RadioUiEngine@@QBEIXZ @ 238 NONAME ; unsigned int RadioUiEngine::frequencyStepSize(void) const
	??0RadioHistoryModel@@AAE@AAVRadioUiEngine@@@Z @ 239 NONAME ; RadioHistoryModel::RadioHistoryModel(class RadioUiEngine &)
	?trUtf8@RadioStationModel@@SA?AVQString@@PBD0H@Z @ 240 NONAME ; class QString RadioStationModel::trUtf8(char const *, char const *, int)
	?radioTextReceived@RadioStationModel@@IAEXABVRadioStation@@@Z @ 241 NONAME ; void RadioStationModel::radioTextReceived(class RadioStation const &)
	?isFavorite@RadioStation@@QBE_NXZ @ 242 NONAME ; bool RadioStation::isFavorite(void) const
	?metaObject@RadioHistoryModel@@UBEPBUQMetaObject@@XZ @ 243 NONAME ; struct QMetaObject const * RadioHistoryModel::metaObject(void) const
	?seekingStarted@RadioUiEngine@@IAEXH@Z @ 244 NONAME ; void RadioUiEngine::seekingStarted(int)
	?emitSeekingStarted@RadioUiEngine@@AAEXW4Direction@Seek@@@Z @ 245 NONAME ; void RadioUiEngine::emitSeekingStarted(enum Seek::Direction)
	?isRecognizedByRds@RadioHistoryItem@@QBE_NXZ @ 246 NONAME ; bool RadioHistoryItem::isRecognizedByRds(void) const
	?setFavorites@RadioStationModel@@QAEXABV?$QList@VQModelIndex@@@@@Z @ 247 NONAME ; void RadioStationModel::setFavorites(class QList<class QModelIndex> const &)
	?setArtist@RadioHistoryItem@@QAEXABVQString@@@Z @ 248 NONAME ; void RadioHistoryItem::setArtist(class QString const &)
	??_ERadioStationModel@@UAE@I@Z @ 249 NONAME ; RadioStationModel::~RadioStationModel(unsigned int)
	?setTitle@RadioHistoryItem@@QAEXABVQString@@@Z @ 250 NONAME ; void RadioHistoryItem::setTitle(class QString const &)

