EXPORTS
	?trUtf8@RadioWindow@@SA?AVQString@@PBD0H@Z @ 1 NONAME ; class QString RadioWindow::trUtf8(char const *, char const *, int)
	?nextIndex@RadioStationCarousel@@AAEHH@Z @ 2 NONAME ; int RadioStationCarousel::nextIndex(int)
	?scrollToIndex@RadioStationCarousel@@AAEXHW4Direction@Scroll@@V?$QFlags@W4ScrollFlag@RadioStationCarousel@@@@@Z @ 3 NONAME ; void RadioStationCarousel::scrollToIndex(int, enum Scroll::Direction, class QFlags<enum RadioStationCarousel::ScrollFlag>)
	?updateItem@RadioFrequencyStrip@@AAEXPAVRadioFrequencyItem@@II@Z @ 4 NONAME ; void RadioFrequencyStrip::updateItem(class RadioFrequencyItem *, unsigned int, unsigned int)
	?qt_metacast@RadioFadingLabel@@UAEPAXPBD@Z @ 5 NONAME ; void * RadioFadingLabel::qt_metacast(char const *)
	?findStation@RadioStationCarousel@@EAE?AVRadioStation@@I@Z @ 6 NONAME ; class RadioStation RadioStationCarousel::findStation(unsigned int)
	?animateNewStation@RadioStationCarousel@@QAEXABVRadioStation@@@Z @ 7 NONAME ; void RadioStationCarousel::animateNewStation(class RadioStation const &)
	?nonFavoriteIcon@RadioStationCarousel@@UBE?AVHbIcon@@XZ @ 8 NONAME ; class HbIcon RadioStationCarousel::nonFavoriteIcon(void) const
	?gestureEvent@RadioStationCarousel@@EAEXPAVQGestureEvent@@@Z @ 9 NONAME ; void RadioStationCarousel::gestureEvent(class QGestureEvent *)
	?setFavoriteIcon@RadioStationCarousel@@QAEXABVHbIcon@@@Z @ 10 NONAME ; void RadioStationCarousel::setFavoriteIcon(class HbIcon const &)
	?update@RadioStationCarousel@@AAEXABVRadioStation@@@Z @ 11 NONAME ; void RadioStationCarousel::update(class RadioStation const &)
	?addFrequencyPos@RadioFrequencyStrip@@AAEXHIPAVRadioFrequencyItem@@@Z @ 12 NONAME ; void RadioFrequencyStrip::addFrequencyPos(int, unsigned int, class RadioFrequencyItem *)
	?trUtf8@RadioFadingLabel@@SA?AVQString@@PBD0@Z @ 13 NONAME ; class QString RadioFadingLabel::trUtf8(char const *, char const *)
	?setScanningMode@RadioFrequencyStrip@@QAEX_N@Z @ 14 NONAME ; void RadioFrequencyStrip::setScanningMode(bool)
	?handleUrlClicked@RadioStationCarousel@@EAEXABVRadioStation@@@Z @ 15 NONAME ; void RadioStationCarousel::handleUrlClicked(class RadioStation const &)
	?createItemPrimitive@RadioFrequencyStrip@@EAEPAVQGraphicsItem@@PAV2@@Z @ 16 NONAME ; class QGraphicsItem * RadioFrequencyStrip::createItemPrimitive(class QGraphicsItem *)
	?skipRequested@RadioStationCarousel@@IAEXH@Z @ 17 NONAME ; void RadioStationCarousel::skipRequested(int)
	?setTextWithoutFading@RadioFadingLabel@@QAEXABVQString@@@Z @ 18 NONAME ; void RadioFadingLabel::setTextWithoutFading(class QString const &)
	?updateAntennaStatus@RadioWindow@@AAEX_N@Z @ 19 NONAME ; void RadioWindow::updateAntennaStatus(bool)
	?handleIconClicked@RadioStationCarousel@@EAEXABVRadioStation@@@Z @ 20 NONAME ; void RadioStationCarousel::handleIconClicked(class RadioStation const &)
	?resizeEvent@RadioFrequencyStrip@@EAEXPAVQGraphicsSceneResizeEvent@@@Z @ 21 NONAME ; void RadioFrequencyStrip::resizeEvent(class QGraphicsSceneResizeEvent *)
	?init@RadioFrequencyStrip@@QAEXPAVRadioUiEngine@@AAVRadioUiLoader@@@Z @ 22 NONAME ; void RadioFrequencyStrip::init(class RadioUiEngine *, class RadioUiLoader &)
	?initButtons@RadioFrequencyStrip@@AAEXXZ @ 23 NONAME ; void RadioFrequencyStrip::initButtons(void)
	?qt_metacall@RadioStationCarousel@@UAEHW4Call@QMetaObject@@HPAPAX@Z @ 24 NONAME ; int RadioStationCarousel::qt_metacall(enum QMetaObject::Call, int, void * *)
	?isInitialized@RadioStationCarousel@@ABE_NXZ @ 25 NONAME ; bool RadioStationCarousel::isInitialized(void) const
	?init@RadioStationCarousel@@QAEXAAVRadioUiLoader@@PAVRadioUiEngine@@@Z @ 26 NONAME ; void RadioStationCarousel::init(class RadioUiLoader &, class RadioUiEngine *)
	?manualSeekChanged@RadioFrequencyStrip@@IAEX_N@Z @ 27 NONAME ; void RadioFrequencyStrip::manualSeekChanged(bool)
	?scrollPosChanged@RadioStationCarousel@@AAEXABVQPointF@@@Z @ 28 NONAME ; void RadioStationCarousel::scrollPosChanged(class QPointF const &)
	?frequencyChanged@RadioFrequencyStrip@@IAEXIHH@Z @ 29 NONAME ; void RadioFrequencyStrip::frequencyChanged(unsigned int, int, int)
	?setAutoScrollTime@RadioStationCarousel@@QAEXH@Z @ 30 NONAME ; void RadioStationCarousel::setAutoScrollTime(int)
	?prevIndex@RadioStationCarousel@@AAEHH@Z @ 31 NONAME ; int RadioStationCarousel::prevIndex(int)
	?trUtf8@RadioStationCarousel@@SA?AVQString@@PBD0@Z @ 32 NONAME ; class QString RadioStationCarousel::trUtf8(char const *, char const *)
	?tr@RadioStationCarousel@@SA?AVQString@@PBD0@Z @ 33 NONAME ; class QString RadioStationCarousel::tr(char const *, char const *)
	?skip@RadioStationCarousel@@AAEXW4Mode@StationSkip@@@Z @ 34 NONAME ; void RadioStationCarousel::skip(enum StationSkip::Mode)
	?selectorPos@RadioFrequencyStrip@@ABEHXZ @ 35 NONAME ; int RadioFrequencyStrip::selectorPos(void) const
	??1RadioWindow@@UAE@XZ @ 36 NONAME ; RadioWindow::~RadioWindow(void)
	?skipRequested@RadioFrequencyStrip@@IAEXH@Z @ 37 NONAME ; void RadioFrequencyStrip::skipRequested(int)
	?setText@RadioFadingLabel@@QAEXABVQString@@@Z @ 38 NONAME ; void RadioFadingLabel::setText(class QString const &)
	?showEvent@RadioStationCarousel@@EAEXPAVQShowEvent@@@Z @ 39 NONAME ; void RadioStationCarousel::showEvent(class QShowEvent *)
	?mousePressEvent@RadioStationCarousel@@EAEXPAVQGraphicsSceneMouseEvent@@@Z @ 40 NONAME ; void RadioStationCarousel::mousePressEvent(class QGraphicsSceneMouseEvent *)
	?trUtf8@RadioFrequencyStrip@@SA?AVQString@@PBD0@Z @ 41 NONAME ; class QString RadioFrequencyStrip::trUtf8(char const *, char const *)
	?handleScrollingEnd@RadioFrequencyStrip@@AAEXXZ @ 42 NONAME ; void RadioFrequencyStrip::handleScrollingEnd(void)
	?activateView@RadioWindow@@AAEXPAVRadioViewBase@@ABVQString@@V?$QFlags@W4ViewSwitchFlag@Hb@@@@@Z @ 43 NONAME ; void RadioWindow::activateView(class RadioViewBase *, class QString const &, class QFlags<enum Hb::ViewSwitchFlag>)
	?calculateDifference@RadioStationCarousel@@AAEHHAAW4Direction@Scroll@@@Z @ 44 NONAME ; int RadioStationCarousel::calculateDifference(int, enum Scroll::Direction &)
	?orientationSection@RadioWindow@@QAE?AVQString@@XZ @ 45 NONAME ; class QString RadioWindow::orientationSection(void)
	?updateStation@RadioFrequencyStrip@@AAEXABVQModelIndex@@HH@Z @ 46 NONAME ; void RadioFrequencyStrip::updateStation(class QModelIndex const &, int, int)
	??1RadioFrequencyStrip@@UAE@XZ @ 47 NONAME ; RadioFrequencyStrip::~RadioFrequencyStrip(void)
	?queryOfflineUsage@RadioWindow@@AAEXW4Profile@QSystemDeviceInfo@QtMobility@@@Z @ 48 NONAME ; void RadioWindow::queryOfflineUsage(enum QtMobility::QSystemDeviceInfo::Profile)
	?cancelAnimation@RadioStationCarousel@@QAEXXZ @ 49 NONAME ; void RadioStationCarousel::cancelAnimation(void)
	?changeEvent@RadioFrequencyStrip@@EAEXPAVQEvent@@@Z @ 50 NONAME ; void RadioFrequencyStrip::changeEvent(class QEvent *)
	?staticMetaObject@RadioStationCarousel@@2UQMetaObject@@B @ 51 NONAME ; struct QMetaObject const RadioStationCarousel::staticMetaObject
	?qt_metacall@RadioFadingLabel@@UAEHW4Call@QMetaObject@@HPAPAX@Z @ 52 NONAME ; int RadioFadingLabel::qt_metacall(enum QMetaObject::Call, int, void * *)
	??0RadioFrequencyStrip@@QAE@XZ @ 53 NONAME ; RadioFrequencyStrip::RadioFrequencyStrip(void)
	?timerEvent@RadioFrequencyStrip@@EAEXPAVQTimerEvent@@@Z @ 54 NONAME ; void RadioFrequencyStrip::timerEvent(class QTimerEvent *)
	?setCenterIndex@RadioStationCarousel@@AAEXHV?$QFlags@W4ScrollFlag@RadioStationCarousel@@@@@Z @ 55 NONAME ; void RadioStationCarousel::setCenterIndex(int, class QFlags<enum RadioStationCarousel::ScrollFlag>)
	?resizeEvent@RadioStationCarousel@@EAEXPAVQGraphicsSceneResizeEvent@@@Z @ 56 NONAME ; void RadioStationCarousel::resizeEvent(class QGraphicsSceneResizeEvent *)
	?scrollPosChanged@RadioFrequencyStrip@@EAEXXZ @ 57 NONAME ; void RadioFrequencyStrip::scrollPosChanged(void)
	?updateStations@RadioStationCarousel@@AAEXXZ @ 58 NONAME ; void RadioStationCarousel::updateStations(void)
	??_ERadioWindow@@UAE@I@Z @ 59 NONAME ; RadioWindow::~RadioWindow(unsigned int)
	?tr@RadioFrequencyStrip@@SA?AVQString@@PBD0@Z @ 60 NONAME ; class QString RadioFrequencyStrip::tr(char const *, char const *)
	?initSelector@RadioFrequencyStrip@@AAEXXZ @ 61 NONAME ; void RadioFrequencyStrip::initSelector(void)
	?qt_metacall@RadioWindow@@UAEHW4Call@QMetaObject@@HPAPAX@Z @ 62 NONAME ; int RadioWindow::qt_metacall(enum QMetaObject::Call, int, void * *)
	?qt_metacall@RadioFrequencyStrip@@UAEHW4Call@QMetaObject@@HPAPAX@Z @ 63 NONAME ; int RadioFrequencyStrip::qt_metacall(enum QMetaObject::Call, int, void * *)
	?metaObject@RadioFrequencyStrip@@UBEPBUQMetaObject@@XZ @ 64 NONAME ; struct QMetaObject const * RadioFrequencyStrip::metaObject(void) const
	?startEffect@RadioFadingLabel@@AAEXABVQString@@PBD@Z @ 65 NONAME ; void RadioFadingLabel::startEffect(class QString const &, char const *)
	?setFrequency@RadioFrequencyStrip@@QAEXIHW4Direction@Scroll@@@Z @ 66 NONAME ; void RadioFrequencyStrip::setFrequency(unsigned int, int, enum Scroll::Direction)
	?activateHistoryView@RadioWindow@@QAEXXZ @ 67 NONAME ; void RadioWindow::activateHistoryView(void)
	??_ERadioStationCarousel@@UAE@I@Z @ 68 NONAME ; RadioStationCarousel::~RadioStationCarousel(unsigned int)
	?initPositions@RadioFrequencyStrip@@AAEXXZ @ 69 NONAME ; void RadioFrequencyStrip::initPositions(void)
	?tr@RadioFadingLabel@@SA?AVQString@@PBD0@Z @ 70 NONAME ; class QString RadioFadingLabel::tr(char const *, char const *)
	?getStaticMetaObject@RadioFadingLabel@@SAABUQMetaObject@@XZ @ 71 NONAME ; struct QMetaObject const & RadioFadingLabel::getStaticMetaObject(void)
	?setManualSeekMode@RadioStationCarousel@@QAEX_N@Z @ 72 NONAME ; void RadioStationCarousel::setManualSeekMode(bool)
	?qt_metacast@RadioWindow@@UAEPAXPBD@Z @ 73 NONAME ; void * RadioWindow::qt_metacast(char const *)
	?trimHtml@RadioFadingLabel@@AAE?AVQString@@ABV2@@Z @ 74 NONAME ; class QString RadioFadingLabel::trimHtml(class QString const &)
	?tr@RadioWindow@@SA?AVQString@@PBD0@Z @ 75 NONAME ; class QString RadioWindow::tr(char const *, char const *)
	?favoriteIcon@RadioStationCarousel@@UBE?AVHbIcon@@XZ @ 76 NONAME ; class HbIcon RadioStationCarousel::favoriteIcon(void) const
	?mouseReleaseEvent@RadioFrequencyStrip@@EAEXPAVQGraphicsSceneMouseEvent@@@Z @ 77 NONAME ; void RadioFrequencyStrip::mouseReleaseEvent(class QGraphicsSceneMouseEvent *)
	?updateItemPrimitive@RadioFrequencyStrip@@EAEXPAVQGraphicsItem@@H@Z @ 78 NONAME ; void RadioFrequencyStrip::updateItemPrimitive(class QGraphicsItem *, int)
	?getStaticMetaObject@RadioFrequencyStrip@@SAABUQMetaObject@@XZ @ 79 NONAME ; struct QMetaObject const & RadioFrequencyStrip::getStaticMetaObject(void)
	?showErrorMessage@RadioWindow@@QAEXABVQString@@@Z @ 80 NONAME ; void RadioWindow::showErrorMessage(class QString const &)
	??0RadioFadingLabel@@QAE@PAVQGraphicsItem@@@Z @ 81 NONAME ; RadioFadingLabel::RadioFadingLabel(class QGraphicsItem *)
	?updateStationsInRange@RadioFrequencyStrip@@AAEXHH_N@Z @ 82 NONAME ; void RadioFrequencyStrip::updateStationsInRange(int, int, bool)
	?initModel@RadioFrequencyStrip@@AAEXXZ @ 83 NONAME ; void RadioFrequencyStrip::initModel(void)
	?frequency@RadioFrequencyStrip@@QBEIXZ @ 84 NONAME ; unsigned int RadioFrequencyStrip::frequency(void) const
	?isInManualSeek@RadioStationCarousel@@EBE_NXZ @ 85 NONAME ; bool RadioStationCarousel::isInManualSeek(void) const
	??1RadioStationCarousel@@UAE@XZ @ 86 NONAME ; RadioStationCarousel::~RadioStationCarousel(void)
	??_ERadioFrequencyStrip@@UAE@I@Z @ 87 NONAME ; RadioFrequencyStrip::~RadioFrequencyStrip(unsigned int)
	?setFadingEnabled@RadioFadingLabel@@QAEX_N@Z @ 88 NONAME ; void RadioFadingLabel::setFadingEnabled(bool)
	?localizeGenre@RadioStationCarousel@@EAE?AVQString@@H@Z @ 89 NONAME ; class QString RadioStationCarousel::localizeGenre(int)
	?mousePressEvent@RadioFrequencyStrip@@EAEXPAVQGraphicsSceneMouseEvent@@@Z @ 90 NONAME ; void RadioFrequencyStrip::mousePressEvent(class QGraphicsSceneMouseEvent *)
	?showVolumeLevel@RadioWindow@@AAEXH@Z @ 91 NONAME ; void RadioWindow::showVolumeLevel(int)
	?getStaticMetaObject@RadioWindow@@SAABUQMetaObject@@XZ @ 92 NONAME ; struct QMetaObject const & RadioWindow::getStaticMetaObject(void)
	?trUtf8@RadioWindow@@SA?AVQString@@PBD0@Z @ 93 NONAME ; class QString RadioWindow::trUtf8(char const *, char const *)
	?handleRadiotextClicked@RadioStationCarousel@@EAEXABVRadioStation@@@Z @ 94 NONAME ; void RadioStationCarousel::handleRadiotextClicked(class RadioStation const &)
	?timerFired@RadioStationCarousel@@AAEXXZ @ 95 NONAME ; void RadioStationCarousel::timerFired(void)
	?toggleManualSeek@RadioFrequencyStrip@@AAEXXZ @ 96 NONAME ; void RadioFrequencyStrip::toggleManualSeek(void)
	?drawPixmap@RadioFrequencyStrip@@AAE?AVQPixmap@@IV?$QList@VRadioStation@@@@PAVRadioFrequencyItem@@@Z @ 97 NONAME ; class QPixmap RadioFrequencyStrip::drawPixmap(unsigned int, class QList<class RadioStation>, class RadioFrequencyItem *)
	?initEmptyItems@RadioFrequencyStrip@@AAEXXZ @ 98 NONAME ; void RadioFrequencyStrip::initEmptyItems(void)
	??0RadioWindow@@QAE@PAVQWidget@@@Z @ 99 NONAME ; RadioWindow::RadioWindow(class QWidget *)
	?tr@RadioFadingLabel@@SA?AVQString@@PBD0H@Z @ 100 NONAME ; class QString RadioFadingLabel::tr(char const *, char const *, int)
	?updateRadioText@RadioStationCarousel@@AAEXABVRadioStation@@@Z @ 101 NONAME ; void RadioStationCarousel::updateRadioText(class RadioStation const &)
	?updateAntennaStatus@RadioStationCarousel@@QAEX_N@Z @ 102 NONAME ; void RadioStationCarousel::updateAntennaStatus(bool)
	?updateFavorite@RadioFrequencyStrip@@QAEXABVRadioStation@@@Z @ 103 NONAME ; void RadioFrequencyStrip::updateFavorite(class RadioStation const &)
	?setFrequency@RadioStationCarousel@@QAEXIHW4Direction@Scroll@@@Z @ 104 NONAME ; void RadioStationCarousel::setFrequency(unsigned int, int, enum Scroll::Direction)
	?setInfoText@RadioStationCarousel@@QAEXW4Type@CarouselInfoText@@@Z @ 105 NONAME ; void RadioStationCarousel::setInfoText(enum CarouselInfoText::Type)
	?staticMetaObject@RadioFadingLabel@@2UQMetaObject@@B @ 106 NONAME ; struct QMetaObject const RadioFadingLabel::staticMetaObject
	?trUtf8@RadioFrequencyStrip@@SA?AVQString@@PBD0H@Z @ 107 NONAME ; class QString RadioFrequencyStrip::trUtf8(char const *, char const *, int)
	?tr@RadioFrequencyStrip@@SA?AVQString@@PBD0H@Z @ 108 NONAME ; class QString RadioFrequencyStrip::tr(char const *, char const *, int)
	?getStaticMetaObject@RadioStationCarousel@@SAABUQMetaObject@@XZ @ 109 NONAME ; struct QMetaObject const & RadioStationCarousel::getStaticMetaObject(void)
	?metaObject@RadioFadingLabel@@UBEPBUQMetaObject@@XZ @ 110 NONAME ; struct QMetaObject const * RadioFadingLabel::metaObject(void) const
	?metaObject@RadioWindow@@UBEPBUQMetaObject@@XZ @ 111 NONAME ; struct QMetaObject const * RadioWindow::metaObject(void) const
	?staticMetaObject@RadioFrequencyStrip@@2UQMetaObject@@B @ 112 NONAME ; struct QMetaObject const RadioFrequencyStrip::staticMetaObject
	?autoScrollTime@RadioStationCarousel@@QBEHXZ @ 113 NONAME ; int RadioStationCarousel::autoScrollTime(void) const
	?handleRightButton@RadioFrequencyStrip@@AAEXXZ @ 114 NONAME ; void RadioFrequencyStrip::handleRightButton(void)
	?qt_metacast@RadioStationCarousel@@UAEPAXPBD@Z @ 115 NONAME ; void * RadioStationCarousel::qt_metacast(char const *)
	?tr@RadioWindow@@SA?AVQString@@PBD0H@Z @ 116 NONAME ; class QString RadioWindow::tr(char const *, char const *, int)
	?addScannedStation@RadioFrequencyStrip@@QAEXABVRadioStation@@@Z @ 117 NONAME ; void RadioFrequencyStrip::addScannedStation(class RadioStation const &)
	?handleLongRightButton@RadioFrequencyStrip@@AAEXXZ @ 118 NONAME ; void RadioFrequencyStrip::handleLongRightButton(void)
	?seekRequested@RadioFrequencyStrip@@IAEXH@Z @ 119 NONAME ; void RadioFrequencyStrip::seekRequested(int)
	?isInManualSeekMode@RadioFrequencyStrip@@QBE_NXZ @ 120 NONAME ; bool RadioFrequencyStrip::isInManualSeekMode(void) const
	?scrollToFrequency@RadioFrequencyStrip@@AAEXIW4Direction@Scroll@@HW4Reason@TuneReason@@@Z @ 121 NONAME ; void RadioFrequencyStrip::scrollToFrequency(unsigned int, enum Scroll::Direction, int, enum TuneReason::Reason)
	??0RadioStationCarousel@@QAE@PAVQGraphicsItem@@@Z @ 122 NONAME ; RadioStationCarousel::RadioStationCarousel(class QGraphicsItem *)
	?adjustAfterScroll@RadioStationCarousel@@AAEXXZ @ 123 NONAME ; void RadioStationCarousel::adjustAfterScroll(void)
	?metaObject@RadioStationCarousel@@UBEPBUQMetaObject@@XZ @ 124 NONAME ; struct QMetaObject const * RadioStationCarousel::metaObject(void) const
	?effectFinished@RadioFadingLabel@@AAEXUEffectStatus@HbEffect@@@Z @ 125 NONAME ; void RadioFadingLabel::effectFinished(struct HbEffect::EffectStatus)
	?updateOrientation@RadioWindow@@AAEXW4Orientation@Qt@@@Z @ 126 NONAME ; void RadioWindow::updateOrientation(enum Qt::Orientation)
	?init@RadioWindow@@QAEXPAVQSystemDeviceInfo@QtMobility@@@Z @ 127 NONAME ; void RadioWindow::init(class QtMobility::QSystemDeviceInfo *)
	?showButtons@RadioFrequencyStrip@@AAEXXZ @ 128 NONAME ; void RadioFrequencyStrip::showButtons(void)
	?uiEngine@RadioStationCarousel@@QAEPAVRadioUiEngine@@XZ @ 129 NONAME ; class RadioUiEngine * RadioStationCarousel::uiEngine(void)
	?trUtf8@RadioFadingLabel@@SA?AVQString@@PBD0H@Z @ 130 NONAME ; class QString RadioFadingLabel::trUtf8(char const *, char const *, int)
	?activateMainView@RadioWindow@@QAEXXZ @ 131 NONAME ; void RadioWindow::activateMainView(void)
	?setScanningMode@RadioStationCarousel@@QAEX_N@Z @ 132 NONAME ; void RadioStationCarousel::setScanningMode(bool)
	??1RadioFadingLabel@@UAE@XZ @ 133 NONAME ; RadioFadingLabel::~RadioFadingLabel(void)
	?setNonFavoriteIcon@RadioStationCarousel@@QAEXABVHbIcon@@@Z @ 134 NONAME ; void RadioStationCarousel::setNonFavoriteIcon(class HbIcon const &)
	?isInScanningMode@RadioStationCarousel@@QBE_NXZ @ 135 NONAME ; bool RadioStationCarousel::isInScanningMode(void) const
	?isAntennaAttached@RadioStationCarousel@@QBE_NXZ @ 136 NONAME ; bool RadioStationCarousel::isAntennaAttached(void) const
	?activateStationsView@RadioWindow@@QAEXXZ @ 137 NONAME ; void RadioWindow::activateStationsView(void)
	?removeStation@RadioFrequencyStrip@@AAEXABVQModelIndex@@HH@Z @ 138 NONAME ; void RadioFrequencyStrip::removeStation(class QModelIndex const &, int, int)
	?tr@RadioStationCarousel@@SA?AVQString@@PBD0H@Z @ 139 NONAME ; class QString RadioStationCarousel::tr(char const *, char const *, int)
	?trimIndex@RadioStationCarousel@@AAEHH@Z @ 140 NONAME ; int RadioStationCarousel::trimIndex(int)
	?frequencyChanged@RadioStationCarousel@@IAEXIHH@Z @ 141 NONAME ; void RadioStationCarousel::frequencyChanged(unsigned int, int, int)
	?setAlternateSkippingMode@RadioStationCarousel@@QAEX_N@Z @ 142 NONAME ; void RadioStationCarousel::setAlternateSkippingMode(bool)
	?initView@RadioWindow@@AAEXXZ @ 143 NONAME ; void RadioWindow::initView(void)
	?gestureEvent@RadioFrequencyStrip@@EAEXPAVQGestureEvent@@@Z @ 144 NONAME ; void RadioFrequencyStrip::gestureEvent(class QGestureEvent *)
	?trUtf8@RadioStationCarousel@@SA?AVQString@@PBD0H@Z @ 145 NONAME ; class QString RadioStationCarousel::trUtf8(char const *, char const *, int)
	?handleLongLeftButton@RadioFrequencyStrip@@AAEXXZ @ 146 NONAME ; void RadioFrequencyStrip::handleLongLeftButton(void)
	?hideButtons@RadioFrequencyStrip@@AAEXXZ @ 147 NONAME ; void RadioFrequencyStrip::hideButtons(void)
	?emitFrequencyChanged@RadioFrequencyStrip@@AAEXI@Z @ 148 NONAME ; void RadioFrequencyStrip::emitFrequencyChanged(unsigned int)
	?handleLeftButton@RadioFrequencyStrip@@AAEXXZ @ 149 NONAME ; void RadioFrequencyStrip::handleLeftButton(void)
	??_ERadioFadingLabel@@UAE@I@Z @ 150 NONAME ; RadioFadingLabel::~RadioFadingLabel(unsigned int)
	?cancelManualSeek@RadioFrequencyStrip@@QAEXXZ @ 151 NONAME ; void RadioFrequencyStrip::cancelManualSeek(void)
	?isScrollingAllowed@RadioStationCarousel@@ABE_NXZ @ 152 NONAME ; bool RadioStationCarousel::isScrollingAllowed(void) const
	?qt_metacast@RadioFrequencyStrip@@UAEPAXPBD@Z @ 153 NONAME ; void * RadioFrequencyStrip::qt_metacast(char const *)
	?staticMetaObject@RadioWindow@@2UQMetaObject@@B @ 154 NONAME ; struct QMetaObject const RadioWindow::staticMetaObject
	?cleanRdsData@RadioStationCarousel@@QAEXXZ @ 155 NONAME ; void RadioStationCarousel::cleanRdsData(void)
	?clearInfoText@RadioStationCarousel@@QAEXXZ @ 156 NONAME ; void RadioStationCarousel::clearInfoText(void)
	?updateAllItems@RadioFrequencyStrip@@AAEXXZ @ 157 NONAME ; void RadioFrequencyStrip::updateAllItems(void)
	?adjustPos@RadioStationCarousel@@AAEXH@Z @ 158 NONAME ; void RadioStationCarousel::adjustPos(int)
	?scanAnimationFinished@RadioStationCarousel@@IAEXXZ @ 159 NONAME ; void RadioStationCarousel::scanAnimationFinished(void)

