EXPORTS
	?initListView@RadioStationsView@@AAEXXZ @ 1 NONAME ; void RadioStationsView::initListView(void)
	?engineStatusChanged@RadioWizardView@@AAEX_N@Z @ 2 NONAME ; void RadioWizardView::engineStatusChanged(bool)
	?startScanning@RadioWizardView@@AAEXXZ @ 3 NONAME ; void RadioWizardView::startScanning(void)
	??1RadioWizardView@@UAE@XZ @ 4 NONAME ; RadioWizardView::~RadioWizardView(void)
	?tr@RadioTuningView@@SA?AVQString@@PBD0H@Z @ 5 NONAME ; class QString RadioTuningView::tr(char const *, char const *, int)
	?qt_metacast@RadioWizardView@@UAEPAXPBD@Z @ 6 NONAME ; void * RadioWizardView::qt_metacast(char const *)
	?prepareToShowDialog@RadioMainWindow@@AAE?AV?$QSharedPointer@VHbView@@@@XZ @ 7 NONAME ; class QSharedPointer<class HbView> RadioMainWindow::prepareToShowDialog(void)
	?trUtf8@RadioPlayLogView@@SA?AVQString@@PBD0H@Z @ 8 NONAME ; class QString RadioPlayLogView::trUtf8(char const *, char const *, int)
	?headsetStatusChanged@RadioMainWindow@@AAEX_N@Z @ 9 NONAME ; void RadioMainWindow::headsetStatusChanged(bool)
	?init@RadioStationsView@@EAEXPAVRadioMainWindow@@PAVRadioStationModel@@@Z @ 10 NONAME ; void RadioStationsView::init(class RadioMainWindow *, class RadioStationModel *)
	?listItemLongPressed@RadioPlayLogView@@AAEXPAVHbAbstractViewItem@@ABVQPointF@@@Z @ 11 NONAME ; void RadioPlayLogView::listItemLongPressed(class HbAbstractViewItem *, class QPointF const &)
	??_ERadioWizardView@@UAE@I@Z @ 12 NONAME ; RadioWizardView::~RadioWizardView(unsigned int)
	??_ERadioStationsView@@UAE@I@Z @ 13 NONAME ; RadioStationsView::~RadioStationsView(unsigned int)
	?activateStationsView@RadioMainWindow@@QAEXXZ @ 14 NONAME ; void RadioMainWindow::activateStationsView(void)
	?activateView@RadioMainWindow@@AAEXAAV?$QPointer@VRadioViewBase@@@@ABVQString@@V?$QFlags@W4ViewSwitchFlag@Hb@@@@@Z @ 15 NONAME ; void RadioMainWindow::activateView(class QPointer<class RadioViewBase> &, class QString const &, class QFlags<enum Hb::ViewSwitchFlag>)
	??0RadioWizardView@@QAE@PAVRadioXmlUiLoader@@@Z @ 16 NONAME ; RadioWizardView::RadioWizardView(class RadioXmlUiLoader *)
	?getStaticMetaObject@RadioMainWindow@@SAABUQMetaObject@@XZ @ 17 NONAME ; struct QMetaObject const & RadioMainWindow::getStaticMetaObject(void)
	??0RadioMainWindow@@QAE@PAVQWidget@@@Z @ 18 NONAME ; RadioMainWindow::RadioMainWindow(class QWidget *)
	?updateVisibilities@RadioPlayLogView@@AAEXXZ @ 19 NONAME ; void RadioPlayLogView::updateVisibilities(void)
	?startScanAndSavePresets@RadioStationsView@@AAEXXZ @ 20 NONAME ; void RadioStationsView::startScanAndSavePresets(void)
	?activateWizardView@RadioMainWindow@@QAEXXZ @ 21 NONAME ; void RadioMainWindow::activateWizardView(void)
	?tr@RadioMainWindow@@SA?AVQString@@PBD0H@Z @ 22 NONAME ; class QString RadioMainWindow::tr(char const *, char const *, int)
	?isOfflineUsageAllowed@RadioMainWindow@@QAE_NXZ @ 23 NONAME ; bool RadioMainWindow::isOfflineUsageAllowed(void)
	?getStaticMetaObject@RadioStationsView@@SAABUQMetaObject@@XZ @ 24 NONAME ; struct QMetaObject const & RadioStationsView::getStaticMetaObject(void)
	??1RadioPlayLogView@@UAE@XZ @ 25 NONAME ; RadioPlayLogView::~RadioPlayLogView(void)
	?listItemClicked@RadioStationsView@@AAEXABVQModelIndex@@@Z @ 26 NONAME ; void RadioStationsView::listItemClicked(class QModelIndex const &)
	?qt_metacall@RadioPlayLogView@@UAEHW4Call@QMetaObject@@HPAPAX@Z @ 27 NONAME ; int RadioPlayLogView::qt_metacall(enum QMetaObject::Call, int, void * *)
	?clearList@RadioPlayLogView@@AAEXXZ @ 28 NONAME ; void RadioPlayLogView::clearList(void)
	?qt_metacall@RadioTuningView@@UAEHW4Call@QMetaObject@@HPAPAX@Z @ 29 NONAME ; int RadioTuningView::qt_metacall(enum QMetaObject::Call, int, void * *)
	?qt_metacall@RadioMainWindow@@UAEHW4Call@QMetaObject@@HPAPAX@Z @ 30 NONAME ; int RadioMainWindow::qt_metacall(enum QMetaObject::Call, int, void * *)
	?staticMetaObject@RadioMainWindow@@2UQMetaObject@@B @ 31 NONAME ; struct QMetaObject const RadioMainWindow::staticMetaObject
	??_ERadioPlayLogView@@UAE@I@Z @ 32 NONAME ; RadioPlayLogView::~RadioPlayLogView(unsigned int)
	??1RadioTuningView@@UAE@XZ @ 33 NONAME ; RadioTuningView::~RadioTuningView(void)
	?updateHeading@RadioStationsView@@AAEXXZ @ 34 NONAME ; void RadioStationsView::updateHeading(void)
	?showEvent@RadioWizardView@@EAEXPAVQShowEvent@@@Z @ 35 NONAME ; void RadioWizardView::showEvent(class QShowEvent *)
	?metaObject@RadioWizardView@@UBEPBUQMetaObject@@XZ @ 36 NONAME ; struct QMetaObject const * RadioWizardView::metaObject(void) const
	??0RadioTuningView@@QAE@PAVRadioXmlUiLoader@@@Z @ 37 NONAME ; RadioTuningView::RadioTuningView(class RadioXmlUiLoader *)
	?init@RadioPlayLogView@@EAEXPAVRadioMainWindow@@PAVRadioStationModel@@@Z @ 38 NONAME ; void RadioPlayLogView::init(class RadioMainWindow *, class RadioStationModel *)
	?trUtf8@RadioTuningView@@SA?AVQString@@PBD0H@Z @ 39 NONAME ; class QString RadioTuningView::trUtf8(char const *, char const *, int)
	?tr@RadioStationsView@@SA?AVQString@@PBD0H@Z @ 40 NONAME ; class QString RadioStationsView::tr(char const *, char const *, int)
	?dialogShown@RadioMainWindow@@AAEXV?$QSharedPointer@VHbView@@@@@Z @ 41 NONAME ; void RadioMainWindow::dialogShown(class QSharedPointer<class HbView>)
	?saveSelectedAsFavorites@RadioWizardView@@AAEXXZ @ 42 NONAME ; void RadioWizardView::saveSelectedAsFavorites(void)
	?deckButtonPressed@RadioPlayLogView@@AAEXXZ @ 43 NONAME ; void RadioPlayLogView::deckButtonPressed(void)
	?updateHeadsetStatus@RadioStationsView@@AAEX_N@Z @ 44 NONAME ; void RadioStationsView::updateHeadsetStatus(bool)
	?setNowPlayingIcon@RadioStationsView@@QAEXABVHbIcon@@@Z @ 45 NONAME ; void RadioStationsView::setNowPlayingIcon(class HbIcon const &)
	?tr@RadioStationsView@@SA?AVQString@@PBD0@Z @ 46 NONAME ; class QString RadioStationsView::tr(char const *, char const *)
	?trUtf8@RadioWizardView@@SA?AVQString@@PBD0@Z @ 47 NONAME ; class QString RadioWizardView::trUtf8(char const *, char const *)
	?trUtf8@RadioMainWindow@@SA?AVQString@@PBD0H@Z @ 48 NONAME ; class QString RadioMainWindow::trUtf8(char const *, char const *, int)
	?tr@RadioWizardView@@SA?AVQString@@PBD0@Z @ 49 NONAME ; class QString RadioWizardView::tr(char const *, char const *)
	?showErrorMessage@RadioMainWindow@@QAEXABVQString@@@Z @ 50 NONAME ; void RadioMainWindow::showErrorMessage(class QString const &)
	??0RadioStationsView@@QAE@PAVRadioXmlUiLoader@@@Z @ 51 NONAME ; RadioStationsView::RadioStationsView(class RadioXmlUiLoader *)
	?favoriteIcon@RadioStationsView@@QBE?AVHbIcon@@XZ @ 52 NONAME ; class HbIcon RadioStationsView::favoriteIcon(void) const
	?setFavoriteIcon@RadioStationsView@@QAEXABVHbIcon@@@Z @ 53 NONAME ; void RadioStationsView::setFavoriteIcon(class HbIcon const &)
	?showVolumeLevel@RadioMainWindow@@AAEXH@Z @ 54 NONAME ; void RadioMainWindow::showVolumeLevel(int)
	?trUtf8@RadioStationsView@@SA?AVQString@@PBD0H@Z @ 55 NONAME ; class QString RadioStationsView::trUtf8(char const *, char const *, int)
	?updateCurrentStation@RadioStationsView@@AAEXXZ @ 56 NONAME ; void RadioStationsView::updateCurrentStation(void)
	?qt_metacast@RadioMainWindow@@UAEPAXPBD@Z @ 57 NONAME ; void * RadioMainWindow::qt_metacast(char const *)
	?tr@RadioPlayLogView@@SA?AVQString@@PBD0@Z @ 58 NONAME ; class QString RadioPlayLogView::tr(char const *, char const *)
	?getStaticMetaObject@RadioPlayLogView@@SAABUQMetaObject@@XZ @ 59 NONAME ; struct QMetaObject const & RadioPlayLogView::getStaticMetaObject(void)
	?init@RadioWizardView@@EAEXPAVRadioMainWindow@@PAVRadioStationModel@@@Z @ 60 NONAME ; void RadioWizardView::init(class RadioMainWindow *, class RadioStationModel *)
	?showContextMenu@RadioPlayLogView@@AAEXABVQModelIndex@@@Z @ 61 NONAME ; void RadioPlayLogView::showContextMenu(class QModelIndex const &)
	??_ERadioMainWindow@@UAE@I@Z @ 62 NONAME ; RadioMainWindow::~RadioMainWindow(unsigned int)
	?trUtf8@RadioTuningView@@SA?AVQString@@PBD0@Z @ 63 NONAME ; class QString RadioTuningView::trUtf8(char const *, char const *)
	?tr@RadioWizardView@@SA?AVQString@@PBD0H@Z @ 64 NONAME ; class QString RadioWizardView::tr(char const *, char const *, int)
	?init@RadioTuningView@@EAEXPAVRadioMainWindow@@PAVRadioStationModel@@@Z @ 65 NONAME ; void RadioTuningView::init(class RadioMainWindow *, class RadioStationModel *)
	?tr@RadioTuningView@@SA?AVQString@@PBD0@Z @ 66 NONAME ; class QString RadioTuningView::tr(char const *, char const *)
	??_ERadioTuningView@@UAE@I@Z @ 67 NONAME ; RadioTuningView::~RadioTuningView(unsigned int)
	?staticMetaObject@RadioStationsView@@2UQMetaObject@@B @ 68 NONAME ; struct QMetaObject const RadioStationsView::staticMetaObject
	?nowPlayingIcon@RadioStationsView@@QBE?AVHbIcon@@XZ @ 69 NONAME ; class HbIcon RadioStationsView::nowPlayingIcon(void) const
	?uiEngine@RadioMainWindow@@QAEAAVRadioUiEngine@@XZ @ 70 NONAME ; class RadioUiEngine & RadioMainWindow::uiEngine(void)
	?qt_metacast@RadioTuningView@@UAEPAXPBD@Z @ 71 NONAME ; void * RadioTuningView::qt_metacast(char const *)
	?qt_metacall@RadioWizardView@@UAEHW4Call@QMetaObject@@HPAPAX@Z @ 72 NONAME ; int RadioWizardView::qt_metacall(enum QMetaObject::Call, int, void * *)
	?staticMetaObject@RadioPlayLogView@@2UQMetaObject@@B @ 73 NONAME ; struct QMetaObject const RadioPlayLogView::staticMetaObject
	??0RadioPlayLogView@@QAE@PAVRadioXmlUiLoader@@@Z @ 74 NONAME ; RadioPlayLogView::RadioPlayLogView(class RadioXmlUiLoader *)
	??1RadioStationsView@@UAE@XZ @ 75 NONAME ; RadioStationsView::~RadioStationsView(void)
	?listItemClicked@RadioPlayLogView@@AAEXABVQModelIndex@@@Z @ 76 NONAME ; void RadioPlayLogView::listItemClicked(class QModelIndex const &)
	?showEvent@RadioStationsView@@EAEXPAVQShowEvent@@@Z @ 77 NONAME ; void RadioStationsView::showEvent(class QShowEvent *)
	?getStaticMetaObject@RadioWizardView@@SAABUQMetaObject@@XZ @ 78 NONAME ; struct QMetaObject const & RadioWizardView::getStaticMetaObject(void)
	?qt_metacast@RadioStationsView@@UAEPAXPBD@Z @ 79 NONAME ; void * RadioStationsView::qt_metacast(char const *)
	?metaObject@RadioTuningView@@UBEPBUQMetaObject@@XZ @ 80 NONAME ; struct QMetaObject const * RadioTuningView::metaObject(void) const
	?trUtf8@RadioStationsView@@SA?AVQString@@PBD0@Z @ 81 NONAME ; class QString RadioStationsView::trUtf8(char const *, char const *)
	?tr@RadioPlayLogView@@SA?AVQString@@PBD0H@Z @ 82 NONAME ; class QString RadioPlayLogView::tr(char const *, char const *, int)
	?qt_metacast@RadioPlayLogView@@UAEPAXPBD@Z @ 83 NONAME ; void * RadioPlayLogView::qt_metacast(char const *)
	?qt_metacall@RadioStationsView@@UAEHW4Call@QMetaObject@@HPAPAX@Z @ 84 NONAME ; int RadioStationsView::qt_metacall(enum QMetaObject::Call, int, void * *)
	?staticMetaObject@RadioWizardView@@2UQMetaObject@@B @ 85 NONAME ; struct QMetaObject const RadioWizardView::staticMetaObject
	?updateControlVisibilities@RadioStationsView@@AAEXXZ @ 86 NONAME ; void RadioStationsView::updateControlVisibilities(void)
	?listItemLongPressed@RadioStationsView@@AAEXPAVHbAbstractViewItem@@ABVQPointF@@@Z @ 87 NONAME ; void RadioStationsView::listItemLongPressed(class HbAbstractViewItem *, class QPointF const &)
	?trUtf8@RadioPlayLogView@@SA?AVQString@@PBD0@Z @ 88 NONAME ; class QString RadioPlayLogView::trUtf8(char const *, char const *)
	?setOrientation@RadioPlayLogView@@EAEXXZ @ 89 NONAME ; void RadioPlayLogView::setOrientation(void)
	?activatePlayLogView@RadioMainWindow@@QAEXXZ @ 90 NONAME ; void RadioMainWindow::activatePlayLogView(void)
	?init@RadioMainWindow@@QAEXPAVRadioUiEngine@@@Z @ 91 NONAME ; void RadioMainWindow::init(class RadioUiEngine *)
	?setOrientation@RadioTuningView@@EAEXXZ @ 92 NONAME ; void RadioTuningView::setOrientation(void)
	?listItemClicked@RadioWizardView@@AAEXABVQModelIndex@@@Z @ 93 NONAME ; void RadioWizardView::listItemClicked(class QModelIndex const &)
	?staticMetaObject@RadioTuningView@@2UQMetaObject@@B @ 94 NONAME ; struct QMetaObject const RadioTuningView::staticMetaObject
	??1RadioMainWindow@@UAE@XZ @ 95 NONAME ; RadioMainWindow::~RadioMainWindow(void)
	?metaObject@RadioMainWindow@@UBEPBUQMetaObject@@XZ @ 96 NONAME ; struct QMetaObject const * RadioMainWindow::metaObject(void) const
	?deckButtonPressed@RadioStationsView@@AAEXXZ @ 97 NONAME ; void RadioStationsView::deckButtonPressed(void)
	?metaObject@RadioPlayLogView@@UBEPBUQMetaObject@@XZ @ 98 NONAME ; struct QMetaObject const * RadioPlayLogView::metaObject(void) const
	?trUtf8@RadioMainWindow@@SA?AVQString@@PBD0@Z @ 99 NONAME ; class QString RadioMainWindow::trUtf8(char const *, char const *)
	?getStaticMetaObject@RadioTuningView@@SAABUQMetaObject@@XZ @ 100 NONAME ; struct QMetaObject const & RadioTuningView::getStaticMetaObject(void)
	?trUtf8@RadioWizardView@@SA?AVQString@@PBD0H@Z @ 101 NONAME ; class QString RadioWizardView::trUtf8(char const *, char const *, int)
	?activateTuningView@RadioMainWindow@@QAEXXZ @ 102 NONAME ; void RadioMainWindow::activateTuningView(void)
	?tr@RadioMainWindow@@SA?AVQString@@PBD0@Z @ 103 NONAME ; class QString RadioMainWindow::tr(char const *, char const *)
	?metaObject@RadioStationsView@@UBEPBUQMetaObject@@XZ @ 104 NONAME ; struct QMetaObject const * RadioStationsView::metaObject(void) const
	?orientationSection@RadioMainWindow@@QAE?AVQString@@XZ @ 105 NONAME ; class QString RadioMainWindow::orientationSection(void)
	?toggleFavorite@RadioTuningView@@AAEXXZ @ 106 NONAME ; void RadioTuningView::toggleFavorite(void)
	?updateOrientation@RadioMainWindow@@AAEXW4Orientation@Qt@@@Z @ 107 NONAME ; void RadioMainWindow::updateOrientation(enum Qt::Orientation)

