EXPORTS
	?setFrequency@RadioHistoryItem@@QAEXI@Z @ 1 NONAME ; void RadioHistoryItem::setFrequency(unsigned int)
	?qt_metacast@RadioUiEngine@@UAEPAXPBD@Z @ 2 NONAME ; void * RadioUiEngine::qt_metacast(char const *)
	?index@RadioStationFilterModel@@UBE?AVQModelIndex@@HHABV2@@Z @ 3 NONAME ; class QModelIndex RadioStationFilterModel::index(int, int, class QModelIndex const &) const
	?parseFrequency@RadioStation@@SA?AVQString@@I@Z @ 4 NONAME ; class QString RadioStation::parseFrequency(unsigned int)
	??0RadioStation@@QAE@ABV0@@Z @ 5 NONAME ; RadioStation::RadioStation(class RadioStation const &)
	?frequency@RadioStation@@QBEIXZ @ 6 NONAME ; unsigned int RadioStation::frequency(void) const
	?setFavoriteByFrequency@RadioStationModel@@QAEXI_N@Z @ 7 NONAME ; void RadioStationModel::setFavoriteByFrequency(unsigned int, bool)
	??_ERadioHistoryItem@@UAE@I@Z @ 8 NONAME ; RadioHistoryItem::~RadioHistoryItem(unsigned int)
	?staticMetaObject@RadioUiEngine@@2UQMetaObject@@B @ 9 NONAME ; struct QMetaObject const RadioUiEngine::staticMetaObject
	?setName@RadioStation@@QAEXABVQString@@@Z @ 10 NONAME ; void RadioStation::setName(class QString const &)
	?qt_metacast@RadioCarouselModel@@UAEPAXPBD@Z @ 11 NONAME ; void * RadioCarouselModel::qt_metacast(char const *)
	?setFavoriteByPreset@RadioStationModel@@QAEXH_N@Z @ 12 NONAME ; void RadioStationModel::setFavoriteByPreset(int, bool)
	?decrementReferenceCount@RadioHistoryItem@@AAEXXZ @ 13 NONAME ; void RadioHistoryItem::decrementReferenceCount(void)
	?qt_metacall@RadioHistoryModel@@UAEHW4Call@QMetaObject@@HPAPAX@Z @ 14 NONAME ; int RadioHistoryModel::qt_metacall(enum QMetaObject::Call, int, void * *)
	?emitVolumeChanged@RadioUiEngine@@AAEXH@Z @ 15 NONAME ; void RadioUiEngine::emitVolumeChanged(int)
	?qt_metacall@RadioUiEngine@@UAEHW4Call@QMetaObject@@HPAPAX@Z @ 16 NONAME ; int RadioUiEngine::qt_metacall(enum QMetaObject::Call, int, void * *)
	?addItem@RadioHistoryModel@@AAEXABVQString@@0ABVRadioStation@@@Z @ 17 NONAME ; void RadioHistoryModel::addItem(class QString const &, class QString const &, class RadioStation const &)
	?trUtf8@RadioCarouselModel@@SA?AVQString@@PBD0H@Z @ 18 NONAME ; class QString RadioCarouselModel::trUtf8(char const *, char const *, int)
	?setGenre@RadioStation@@QAEXH@Z @ 19 NONAME ; void RadioStation::setGenre(int)
	??4RadioStation@@QAEAAV0@ABV0@@Z @ 20 NONAME ; class RadioStation & RadioStation::operator=(class RadioStation const &)
	?stationModel@RadioUiEngine@@QAEAAVRadioStationModel@@XZ @ 21 NONAME ; class RadioStationModel & RadioUiEngine::stationModel(void)
	?toggleTagging@RadioHistoryModel@@QAEXABVRadioHistoryItem@@H@Z @ 22 NONAME ; void RadioHistoryModel::toggleTagging(class RadioHistoryItem const &, int)
	?muteChanged@RadioUiEngine@@IAEX_N@Z @ 23 NONAME ; void RadioUiEngine::muteChanged(bool)
	?maxFrequency@RadioUiEngine@@QBEIXZ @ 24 NONAME ; unsigned int RadioUiEngine::maxFrequency(void) const
	?saveStation@RadioStationModel@@QAEXAAVRadioStation@@@Z @ 25 NONAME ; void RadioStationModel::saveStation(class RadioStation &)
	?hasChanged@RadioStation@@QBE_NXZ @ 26 NONAME ; bool RadioStation::hasChanged(void) const
	??0RadioCarouselModel@@AAE@AAVRadioUiEngine@@AAVRadioStationModel@@@Z @ 27 NONAME ; RadioCarouselModel::RadioCarouselModel(class RadioUiEngine &, class RadioStationModel &)
	?trUtf8@RadioScannerEngine@@SA?AVQString@@PBD0H@Z @ 28 NONAME ; class QString RadioScannerEngine::trUtf8(char const *, char const *, int)
	?isScanning@RadioUiEngine@@QBE_NXZ @ 29 NONAME ; bool RadioUiEngine::isScanning(void) const
	?d_func@RadioHistoryModel@@AAEPAVRadioHistoryModelPrivate@@XZ @ 30 NONAME ; class RadioHistoryModelPrivate * RadioHistoryModel::d_func(void)
	?piCodeToCallSign@RadioStation@@AAE?AVQString@@I@Z @ 31 NONAME ; class QString RadioStation::piCodeToCallSign(unsigned int)
	?hasLooped@RadioStationFilterModel@@QBE_NABVQModelIndex@@@Z @ 32 NONAME ; bool RadioStationFilterModel::hasLooped(class QModelIndex const &) const
	?favoriteChanged@RadioStationModel@@IAEXABVRadioStation@@@Z @ 33 NONAME ; void RadioStationModel::favoriteChanged(class RadioStation const &)
	?radioStatusChanged@RadioUiEngine@@IAEX_N@Z @ 34 NONAME ; void RadioUiEngine::radioStatusChanged(bool)
	?setIcons@RadioHistoryModel@@QAEXABVQIcon@@0@Z @ 35 NONAME ; void RadioHistoryModel::setIcons(class QIcon const &, class QIcon const &)
	?isCurrentSongRecognized@RadioHistoryModel@@QBE_NXZ @ 36 NONAME ; bool RadioHistoryModel::isCurrentSongRecognized(void) const
	?clearRadioTextPlus@RadioHistoryModel@@AAEXXZ @ 37 NONAME ; void RadioHistoryModel::clearRadioTextPlus(void)
	?addStation@RadioStationModel@@QAEXABVRadioStation@@@Z @ 38 NONAME ; void RadioStationModel::addStation(class RadioStation const &)
	?favoriteCount@RadioStationModel@@QAEHXZ @ 39 NONAME ; int RadioStationModel::favoriteCount(void)
	?createNewFilterModel@RadioUiEngine@@QAEPAVRadioStationFilterModel@@PAVQObject@@@Z @ 40 NONAME ; class RadioStationFilterModel * RadioUiEngine::createNewFilterModel(class QObject *)
	??1RadioScannerEngine@@UAE@XZ @ 41 NONAME ; RadioScannerEngine::~RadioScannerEngine(void)
	?isScanning@RadioScannerEngine@@QBE_NXZ @ 42 NONAME ; bool RadioScannerEngine::isScanning(void) const
	?tunePreset@RadioUiEngine@@QAEXH@Z @ 43 NONAME ; void RadioUiEngine::tunePreset(int)
	?trUtf8@RadioScannerEngine@@SA?AVQString@@PBD0@Z @ 44 NONAME ; class QString RadioScannerEngine::trUtf8(char const *, char const *)
	?emitDataChanged@RadioStationModel@@AAEXABVRadioStation@@@Z @ 45 NONAME ; void RadioStationModel::emitDataChanged(class RadioStation const &)
	?isRadioOn@RadioUiEngine@@QBE_NXZ @ 46 NONAME ; bool RadioUiEngine::isRadioOn(void) const
	?continueScanning@RadioScannerEngine@@QAEXXZ @ 47 NONAME ; void RadioScannerEngine::continueScanning(void)
	?modelIndexFromFrequency@RadioStationModel@@QAE?AVQModelIndex@@I@Z @ 48 NONAME ; class QModelIndex RadioStationModel::modelIndexFromFrequency(unsigned int)
	?list@RadioStationModel@@QBEABV?$QMap@IVRadioStation@@@@XZ @ 49 NONAME ; class QMap<unsigned int, class RadioStation> const & RadioStationModel::list(void) const
	?tr@RadioStationModel@@SA?AVQString@@PBD0@Z @ 50 NONAME ; class QString RadioStationModel::tr(char const *, char const *)
	?tr@RadioCarouselModel@@SA?AVQString@@PBD0H@Z @ 51 NONAME ; class QString RadioCarouselModel::tr(char const *, char const *, int)
	?setChangeFlags@RadioStation@@QAEXV?$QFlags@W4ChangeFlag@RadioStation@@@@@Z @ 52 NONAME ; void RadioStation::setChangeFlags(class QFlags<enum RadioStation::ChangeFlag>)
	?hasRds@RadioStation@@QBE_NXZ @ 53 NONAME ; bool RadioStation::hasRds(void) const
	?findClosest@RadioStationModel@@QAE?AVRadioStation@@IW4Mode@StationSkip@@@Z @ 54 NONAME ; class RadioStation RadioStationModel::findClosest(unsigned int, enum StationSkip::Mode)
	?flags@RadioStationModel@@UBE?AV?$QFlags@W4ItemFlag@Qt@@@@ABVQModelIndex@@@Z @ 55 NONAME ; class QFlags<enum Qt::ItemFlag> RadioStationModel::flags(class QModelIndex const &) const
	?id@RadioHistoryItem@@QBEHXZ @ 56 NONAME ; int RadioHistoryItem::id(void) const
	?stationsInRange@RadioUiEngine@@QAE?AV?$QList@VRadioStation@@@@II@Z @ 57 NONAME ; class QList<class RadioStation> RadioUiEngine::stationsInRange(unsigned int, unsigned int)
	?trUtf8@RadioUiEngine@@SA?AVQString@@PBD0@Z @ 58 NONAME ; class QString RadioUiEngine::trUtf8(char const *, char const *)
	?tr@RadioScannerEngine@@SA?AVQString@@PBD0H@Z @ 59 NONAME ; class QString RadioScannerEngine::tr(char const *, char const *, int)
	??_ERadioCarouselModel@@UAE@I@Z @ 60 NONAME ; RadioCarouselModel::~RadioCarouselModel(unsigned int)
	??0RadioStation@@QAE@HI@Z @ 61 NONAME ; RadioStation::RadioStation(int, unsigned int)
	?setVolume@RadioUiEngine@@QAEXH@Z @ 62 NONAME ; void RadioUiEngine::setVolume(int)
	?setFavorite@RadioStation@@QAEX_N@Z @ 63 NONAME ; void RadioStation::setFavorite(bool)
	?d_func@RadioStationModel@@ABEPBVRadioStationModelPrivate@@XZ @ 64 NONAME ; class RadioStationModelPrivate const * RadioStationModel::d_func(void) const
	?setCyclic@RadioStationFilterModel@@QAEX_N@Z @ 65 NONAME ; void RadioStationFilterModel::setCyclic(bool)
	??1RadioStationModel@@UAE@XZ @ 66 NONAME ; RadioStationModel::~RadioStationModel(void)
	?isMuted@RadioUiEngine@@QBE_NXZ @ 67 NONAME ; bool RadioUiEngine::isMuted(void) const
	?isValid@RadioStation@@QBE_NXZ @ 68 NONAME ; bool RadioStation::isValid(void) const
	?isEqual@RadioStationFilterModel@@QBE_NABVQModelIndex@@0@Z @ 69 NONAME ; bool RadioStationFilterModel::isEqual(class QModelIndex const &, class QModelIndex const &) const
	?decrementReferenceCount@RadioStation@@AAEXXZ @ 70 NONAME ; void RadioStation::decrementReferenceCount(void)
	?trUtf8@RadioUiEngine@@SA?AVQString@@PBD0H@Z @ 71 NONAME ; class QString RadioUiEngine::trUtf8(char const *, char const *, int)
	?reset@RadioHistoryItem@@QAEXXZ @ 72 NONAME ; void RadioHistoryItem::reset(void)
	?trUtf8@RadioStationModel@@SA?AVQString@@PBD0@Z @ 73 NONAME ; class QString RadioStationModel::trUtf8(char const *, char const *)
	??0RadioStationModel@@QAE@AAVRadioUiEnginePrivate@@@Z @ 74 NONAME ; RadioStationModel::RadioStationModel(class RadioUiEnginePrivate &)
	?tuneFrequency@RadioUiEngine@@QAEXIH@Z @ 75 NONAME ; void RadioUiEngine::tuneFrequency(unsigned int, int)
	?frequency@RadioHistoryItem@@QBEIXZ @ 76 NONAME ; unsigned int RadioHistoryItem::frequency(void) const
	?qt_metacall@RadioScannerEngine@@UAEHW4Call@QMetaObject@@HPAPAX@Z @ 77 NONAME ; int RadioScannerEngine::qt_metacall(enum QMetaObject::Call, int, void * *)
	?emitTunedToFrequency@RadioUiEngine@@AAEXIH@Z @ 78 NONAME ; void RadioUiEngine::emitTunedToFrequency(unsigned int, int)
	?psType@RadioStation@@QBE?AV?$QFlags@W4PsTypeFlag@RadioStation@@@@XZ @ 79 NONAME ; class QFlags<enum RadioStation::PsTypeFlag> RadioStation::psType(void) const
	?d_func@RadioUiEngine@@ABEPBVRadioUiEnginePrivate@@XZ @ 80 NONAME ; class RadioUiEnginePrivate const * RadioUiEngine::d_func(void) const
	?rowCount@RadioCarouselModel@@UBEHABVQModelIndex@@@Z @ 81 NONAME ; int RadioCarouselModel::rowCount(class QModelIndex const &) const
	?scannerEngine@RadioUiEngine@@QAEPAVRadioScannerEngine@@XZ @ 82 NONAME ; class RadioScannerEngine * RadioUiEngine::scannerEngine(void)
	?startScanning@RadioScannerEngine@@QAEXXZ @ 83 NONAME ; void RadioScannerEngine::startScanning(void)
	?emitStationFound@RadioScannerEngine@@AAEXABVRadioStation@@@Z @ 84 NONAME ; void RadioScannerEngine::emitStationFound(class RadioStation const &)
	?findCurrentStation@RadioStationModel@@AAE?AVRadioStation@@I@Z @ 85 NONAME ; class RadioStation RadioStationModel::findCurrentStation(unsigned int)
	??4RadioHistoryItem@@QAEAAV0@ABV0@@Z @ 86 NONAME ; class RadioHistoryItem & RadioHistoryItem::operator=(class RadioHistoryItem const &)
	?url@RadioStation@@QBE?AVQString@@XZ @ 87 NONAME ; class QString RadioStation::url(void) const
	?historyModel@RadioUiEngine@@QAEAAVRadioHistoryModel@@XZ @ 88 NONAME ; class RadioHistoryModel & RadioUiEngine::historyModel(void)
	?frequencyMhz@RadioStation@@QBE?AVQString@@XZ @ 89 NONAME ; class QString RadioStation::frequencyMhz(void) const
	?setStation@RadioHistoryItem@@QAEXABVQString@@@Z @ 90 NONAME ; void RadioHistoryItem::setStation(class QString const &)
	?qt_metacast@RadioStationModel@@UAEPAXPBD@Z @ 91 NONAME ; void * RadioStationModel::qt_metacast(char const *)
	?getStaticMetaObject@RadioCarouselModel@@SAABUQMetaObject@@XZ @ 92 NONAME ; struct QMetaObject const & RadioCarouselModel::getStaticMetaObject(void)
	?filterAcceptsRow@RadioStationFilterModel@@EBE_NHABVQModelIndex@@@Z @ 93 NONAME ; bool RadioStationFilterModel::filterAcceptsRow(int, class QModelIndex const &) const
	?cancel@RadioScannerEngine@@QAEXXZ @ 94 NONAME ; void RadioScannerEngine::cancel(void)
	?addRecognizedSong@RadioUiEngine@@QAEXABVQString@@0ABVRadioStation@@@Z @ 95 NONAME ; void RadioUiEngine::addRecognizedSong(class QString const &, class QString const &, class RadioStation const &)
	?emitMuteChanged@RadioUiEngine@@AAEX_N@Z @ 96 NONAME ; void RadioUiEngine::emitMuteChanged(bool)
	?removeByPresetIndex@RadioStationModel@@QAEXH@Z @ 97 NONAME ; void RadioStationModel::removeByPresetIndex(int)
	?d_func@RadioScannerEngine@@AAEPAVRadioScannerEnginePrivate@@XZ @ 98 NONAME ; class RadioScannerEnginePrivate * RadioScannerEngine::d_func(void)
	?stationAt@RadioStationModel@@QBE?AVRadioStation@@H@Z @ 99 NONAME ; class RadioStation RadioStationModel::stationAt(int) const
	?dynamicPsChanged@RadioStationModel@@IAEXABVRadioStation@@@Z @ 100 NONAME ; void RadioStationModel::dynamicPsChanged(class RadioStation const &)
	?setType@RadioStation@@QAEXV?$QFlags@W4TypeFlag@RadioStation@@@@@Z @ 101 NONAME ; void RadioStation::setType(class QFlags<enum RadioStation::TypeFlag>)
	??0RadioHistoryItem@@QAE@XZ @ 102 NONAME ; RadioHistoryItem::RadioHistoryItem(void)
	?findPresetIndex@RadioStationModel@@QAEHH@Z @ 103 NONAME ; int RadioStationModel::findPresetIndex(int)
	?setRadioTextPlus@RadioStation@@QAEXHABVQString@@@Z @ 104 NONAME ; void RadioStation::setRadioTextPlus(int, class QString const &)
	?metaObject@RadioStationModel@@UBEPBUQMetaObject@@XZ @ 105 NONAME ; struct QMetaObject const * RadioStationModel::metaObject(void) const
	?getStaticMetaObject@RadioStationModel@@SAABUQMetaObject@@XZ @ 106 NONAME ; struct QMetaObject const & RadioStationModel::getStaticMetaObject(void)
	?tr@RadioScannerEngine@@SA?AVQString@@PBD0@Z @ 107 NONAME ; class QString RadioScannerEngine::tr(char const *, char const *)
	?dynamicPsText@RadioStation@@QBE?AVQString@@XZ @ 108 NONAME ; class QString RadioStation::dynamicPsText(void) const
	?isFirstTimeStart@RadioUiEngine@@QAE_NXZ @ 109 NONAME ; bool RadioUiEngine::isFirstTimeStart(void)
	?setMute@RadioUiEngine@@QAEX_N@Z @ 110 NONAME ; void RadioUiEngine::setMute(bool)
	?init@RadioUiEngine@@QAE_NXZ @ 111 NONAME ; bool RadioUiEngine::init(void)
	?changeFlags@RadioStation@@QBE?AV?$QFlags@W4ChangeFlag@RadioStation@@@@XZ @ 112 NONAME ; class QFlags<enum RadioStation::ChangeFlag> RadioStation::changeFlags(void) const
	?qt_metacast@RadioHistoryModel@@UAEPAXPBD@Z @ 113 NONAME ; void * RadioHistoryModel::qt_metacast(char const *)
	??1RadioUiEngine@@UAE@XZ @ 114 NONAME ; RadioUiEngine::~RadioUiEngine(void)
	?tr@RadioHistoryModel@@SA?AVQString@@PBD0@Z @ 115 NONAME ; class QString RadioHistoryModel::tr(char const *, char const *)
	?metaObject@RadioCarouselModel@@UBEPBUQMetaObject@@XZ @ 116 NONAME ; struct QMetaObject const * RadioCarouselModel::metaObject(void) const
	?d_func@RadioCarouselModel@@AAEPAVRadioCarouselModelPrivate@@XZ @ 117 NONAME ; class RadioCarouselModelPrivate * RadioCarouselModel::d_func(void)
	?initialize@RadioStationModel@@QAEXPAVRadioPresetStorage@@PAVRadioEngineWrapper@@@Z @ 118 NONAME ; void RadioStationModel::initialize(class RadioPresetStorage *, class RadioEngineWrapper *)
	?resetCurrentSong@RadioHistoryModel@@QAEXXZ @ 119 NONAME ; void RadioHistoryModel::resetCurrentSong(void)
	?d_func@RadioHistoryModel@@ABEPBVRadioHistoryModelPrivate@@XZ @ 120 NONAME ; class RadioHistoryModelPrivate const * RadioHistoryModel::d_func(void) const
	?stationFound@RadioScannerEngine@@IAEXABVRadioStation@@@Z @ 121 NONAME ; void RadioScannerEngine::stationFound(class RadioStation const &)
	?resetChangeFlags@RadioStation@@QAEXXZ @ 122 NONAME ; void RadioStation::resetChangeFlags(void)
	??_ERadioStationFilterModel@@UAE@I@Z @ 123 NONAME ; RadioStationFilterModel::~RadioStationFilterModel(unsigned int)
	?metaObject@RadioScannerEngine@@UBEPBUQMetaObject@@XZ @ 124 NONAME ; struct QMetaObject const * RadioScannerEngine::metaObject(void) const
	?callSignChar@RadioStation@@AAEDI@Z @ 125 NONAME ; char RadioStation::callSignChar(unsigned int)
	??_ERadioStation@@UAE@I@Z @ 126 NONAME ; RadioStation::~RadioStation(unsigned int)
	?detach@RadioHistoryItem@@QAEXXZ @ 127 NONAME ; void RadioHistoryItem::detach(void)
	?staticMetaObject@RadioHistoryModel@@2UQMetaObject@@B @ 128 NONAME ; struct QMetaObject const RadioHistoryModel::staticMetaObject
	?isDetached@RadioStation@@QBE_NXZ @ 129 NONAME ; bool RadioStation::isDetached(void) const
	??0RadioHistoryItem@@QAE@ABVQString@@0@Z @ 130 NONAME ; RadioHistoryItem::RadioHistoryItem(class QString const &, class QString const &)
	?removeAll@RadioStationModel@@QAEXW4RemoveMode@1@@Z @ 131 NONAME ; void RadioStationModel::removeAll(enum RadioStationModel::RemoveMode)
	?data_ptr@RadioHistoryItem@@QAEAAPAVRadioHistoryItemPrivate@@XZ @ 132 NONAME ; class RadioHistoryItemPrivate * & RadioHistoryItem::data_ptr(void)
	?setShowDetails@RadioHistoryModel@@QAEX_N@Z @ 133 NONAME ; void RadioHistoryModel::setShowDetails(bool)
	?rowCount@RadioStationModel@@UBEHABVQModelIndex@@@Z @ 134 NONAME ; int RadioStationModel::rowCount(class QModelIndex const &) const
	?toggleMute@RadioUiEngine@@QAEXXZ @ 135 NONAME ; void RadioUiEngine::toggleMute(void)
	?genreToString@RadioUiEngine@@QAE?AVQString@@HW4Target@GenreTarget@@@Z @ 136 NONAME ; class QString RadioUiEngine::genreToString(int, enum GenreTarget::Target)
	?d_func@RadioUiEngine@@AAEPAVRadioUiEnginePrivate@@XZ @ 137 NONAME ; class RadioUiEnginePrivate * RadioUiEngine::d_func(void)
	?station@RadioHistoryItem@@QBE?AVQString@@XZ @ 138 NONAME ; class QString RadioHistoryItem::station(void) const
	??_ERadioHistoryModel@@UAE@I@Z @ 139 NONAME ; RadioHistoryModel::~RadioHistoryModel(unsigned int)
	??1RadioCarouselModel@@UAE@XZ @ 140 NONAME ; RadioCarouselModel::~RadioCarouselModel(void)
	?addScannedFrequency@RadioScannerEngine@@QAEXI@Z @ 141 NONAME ; void RadioScannerEngine::addScannedFrequency(unsigned int)
	?trUtf8@RadioHistoryModel@@SA?AVQString@@PBD0@Z @ 142 NONAME ; class QString RadioHistoryModel::trUtf8(char const *, char const *)
	?frequencyStepSize@RadioUiEngine@@QBEIXZ @ 143 NONAME ; unsigned int RadioUiEngine::frequencyStepSize(void) const
	??0RadioHistoryModel@@AAE@AAVRadioUiEngine@@@Z @ 144 NONAME ; RadioHistoryModel::RadioHistoryModel(class RadioUiEngine &)
	?trUtf8@RadioStationModel@@SA?AVQString@@PBD0H@Z @ 145 NONAME ; class QString RadioStationModel::trUtf8(char const *, char const *, int)
	?metaObject@RadioHistoryModel@@UBEPBUQMetaObject@@XZ @ 146 NONAME ; struct QMetaObject const * RadioHistoryModel::metaObject(void) const
	?setFavorites@RadioStationModel@@QAEXABV?$QList@VQModelIndex@@@@@Z @ 147 NONAME ; void RadioStationModel::setFavorites(class QList<class QModelIndex> const &)
	?setArtist@RadioHistoryItem@@QAEXABVQString@@@Z @ 148 NONAME ; void RadioHistoryItem::setArtist(class QString const &)
	?setTitle@RadioHistoryItem@@QAEXABVQString@@@Z @ 149 NONAME ; void RadioHistoryItem::setTitle(class QString const &)
	?isOfflineProfile@RadioUiEngine@@SA_NXZ @ 150 NONAME ; bool RadioUiEngine::isOfflineProfile(void)
	?tr@RadioUiEngine@@SA?AVQString@@PBD0@Z @ 151 NONAME ; class QString RadioUiEngine::tr(char const *, char const *)
	?currentStation@RadioStationModel@@QBEABVRadioStation@@XZ @ 152 NONAME ; class RadioStation const & RadioStationModel::currentStation(void) const
	?rowCount@RadioHistoryModel@@UBEHABVQModelIndex@@@Z @ 153 NONAME ; int RadioHistoryModel::rowCount(class QModelIndex const &) const
	?region@RadioUiEngine@@QBE?AW4Region@RadioRegion@@XZ @ 154 NONAME ; enum RadioRegion::Region RadioUiEngine::region(void) const
	?skipStation@RadioUiEngine@@QAEIW4Mode@StationSkip@@I@Z @ 155 NONAME ; unsigned int RadioUiEngine::skipStation(enum StationSkip::Mode, unsigned int)
	?isInitialized@RadioUiEngine@@QBE_NXZ @ 156 NONAME ; bool RadioUiEngine::isInitialized(void) const
	?findFrequency@RadioStationModel@@QAE_NIAAVRadioStation@@@Z @ 157 NONAME ; bool RadioStationModel::findFrequency(unsigned int, class RadioStation &)
	?stationsInRange@RadioStationModel@@QAE?AV?$QList@VRadioStation@@@@II@Z @ 158 NONAME ; class QList<class RadioStation> RadioStationModel::stationsInRange(unsigned int, unsigned int)
	?tuneWithDelay@RadioUiEngine@@QAEXIH@Z @ 159 NONAME ; void RadioUiEngine::tuneWithDelay(unsigned int, int)
	?emitAntennaStatusChanged@RadioUiEngine@@AAEX_N@Z @ 160 NONAME ; void RadioUiEngine::emitAntennaStatusChanged(bool)
	?settings@RadioUiEngine@@QAEAAVRadioSettingsIf@@XZ @ 161 NONAME ; class RadioSettingsIf & RadioUiEngine::settings(void)
	??_ERadioScannerEngine@@UAE@I@Z @ 162 NONAME ; RadioScannerEngine::~RadioScannerEngine(unsigned int)
	?hasPiCode@RadioStation@@QBE_NXZ @ 163 NONAME ; bool RadioStation::hasPiCode(void) const
	?rdsAvailabilityChanged@RadioUiEngine@@IAEX_N@Z @ 164 NONAME ; void RadioUiEngine::rdsAvailabilityChanged(bool)
	?qt_metacall@RadioCarouselModel@@UAEHW4Call@QMetaObject@@HPAPAX@Z @ 165 NONAME ; int RadioCarouselModel::qt_metacall(enum QMetaObject::Call, int, void * *)
	?findPresetIndex@RadioStationModel@@QAEHHAAVRadioStation@@@Z @ 166 NONAME ; int RadioStationModel::findPresetIndex(int, class RadioStation &)
	?stationHandlerIf@RadioStationModel@@QAEAAVRadioStationHandlerIf@@XZ @ 167 NONAME ; class RadioStationHandlerIf & RadioStationModel::stationHandlerIf(void)
	?emitSeekingStarted@RadioUiEngine@@AAEXW4Direction@Seeking@@@Z @ 168 NONAME ; void RadioUiEngine::emitSeekingStarted(enum Seeking::Direction)
	??1RadioStationFilterModel@@UAE@XZ @ 169 NONAME ; RadioStationFilterModel::~RadioStationFilterModel(void)
	?emitAudioRouteChanged@RadioUiEngine@@AAEX_N@Z @ 170 NONAME ; void RadioUiEngine::emitAudioRouteChanged(bool)
	?d_func@RadioScannerEngine@@ABEPBVRadioScannerEnginePrivate@@XZ @ 171 NONAME ; class RadioScannerEnginePrivate const * RadioScannerEngine::d_func(void) const
	?toggleAudioRoute@RadioUiEngine@@QAEXXZ @ 172 NONAME ; void RadioUiEngine::toggleAudioRoute(void)
	?unsetType@RadioStation@@QAEXV?$QFlags@W4TypeFlag@RadioStation@@@@@Z @ 173 NONAME ; void RadioStation::unsetType(class QFlags<enum RadioStation::TypeFlag>)
	?setIcons@RadioStationModel@@QAEXABVQIcon@@0@Z @ 174 NONAME ; void RadioStationModel::setIcons(class QIcon const &, class QIcon const &)
	?findUnusedPresetIndex@RadioStationModel@@AAEHXZ @ 175 NONAME ; int RadioStationModel::findUnusedPresetIndex(void)
	?getStaticMetaObject@RadioHistoryModel@@SAABUQMetaObject@@XZ @ 176 NONAME ; struct QMetaObject const & RadioHistoryModel::getStaticMetaObject(void)
	?dynamicPsCheckEnded@RadioStationModel@@AAEXXZ @ 177 NONAME ; void RadioStationModel::dynamicPsCheckEnded(void)
	?seekStation@RadioUiEngine@@QAEXH@Z @ 178 NONAME ; void RadioUiEngine::seekStation(int)
	?setPiCode@RadioStation@@QAE_NHW4Region@RadioRegion@@@Z @ 179 NONAME ; bool RadioStation::setPiCode(int, enum RadioRegion::Region)
	?lastTunedFrequency@RadioUiEngine@@SAIXZ @ 180 NONAME ; unsigned int RadioUiEngine::lastTunedFrequency(void)
	?tunedToFrequency@RadioUiEngine@@IAEXIH@Z @ 181 NONAME ; void RadioUiEngine::tunedToFrequency(unsigned int, int)
	?tr@RadioUiEngine@@SA?AVQString@@PBD0H@Z @ 182 NONAME ; class QString RadioUiEngine::tr(char const *, char const *, int)
	?trUtf8@RadioHistoryModel@@SA?AVQString@@PBD0H@Z @ 183 NONAME ; class QString RadioHistoryModel::trUtf8(char const *, char const *, int)
	?data@RadioStationFilterModel@@UBE?AVQVariant@@ABVQModelIndex@@H@Z @ 184 NONAME ; class QVariant RadioStationFilterModel::data(class QModelIndex const &, int) const
	?detach@RadioStation@@QAEXXZ @ 185 NONAME ; void RadioStation::detach(void)
	?d_func@RadioCarouselModel@@ABEPBVRadioCarouselModelPrivate@@XZ @ 186 NONAME ; class RadioCarouselModelPrivate const * RadioCarouselModel::d_func(void) const
	?staticMetaObject@RadioScannerEngine@@2UQMetaObject@@B @ 187 NONAME ; struct QMetaObject const RadioScannerEngine::staticMetaObject
	?radioText@RadioStation@@QBE?AVQString@@XZ @ 188 NONAME ; class QString RadioStation::radioText(void) const
	?setData@RadioStationModel@@UAE_NABVQModelIndex@@ABVQVariant@@H@Z @ 189 NONAME ; bool RadioStationModel::setData(class QModelIndex const &, class QVariant const &, int)
	?setPsType@RadioStation@@QAEXV?$QFlags@W4PsTypeFlag@RadioStation@@@@@Z @ 190 NONAME ; void RadioStation::setPsType(class QFlags<enum RadioStation::PsTypeFlag>)
	?itemAtIndex@RadioHistoryModel@@QBE?AVRadioHistoryItem@@ABVQModelIndex@@@Z @ 191 NONAME ; class RadioHistoryItem RadioHistoryModel::itemAtIndex(class QModelIndex const &) const
	?emitChangeSignals@RadioStationModel@@AAEXABVRadioStation@@V?$QFlags@W4ChangeFlag@RadioStation@@@@@Z @ 192 NONAME ; void RadioStationModel::emitChangeSignals(class RadioStation const &, class QFlags<enum RadioStation::ChangeFlag>)
	?setPresetIndex@RadioStation@@QAEXH@Z @ 193 NONAME ; void RadioStation::setPresetIndex(int)
	?tr@RadioStationModel@@SA?AVQString@@PBD0H@Z @ 194 NONAME ; class QString RadioStationModel::tr(char const *, char const *, int)
	?trUtf8@RadioCarouselModel@@SA?AVQString@@PBD0@Z @ 195 NONAME ; class QString RadioCarouselModel::trUtf8(char const *, char const *)
	?renameStation@RadioStationModel@@QAEXHABVQString@@@Z @ 196 NONAME ; void RadioStationModel::renameStation(int, class QString const &)
	?currentFrequency@RadioUiEngine@@QBEIXZ @ 197 NONAME ; unsigned int RadioUiEngine::currentFrequency(void) const
	?emitItemAdded@RadioHistoryModel@@AAEXXZ @ 198 NONAME ; void RadioHistoryModel::emitItemAdded(void)
	?setUserDefinedName@RadioStation@@QAEXABVQString@@@Z @ 199 NONAME ; void RadioStation::setUserDefinedName(class QString const &)
	??1RadioStation@@UAE@XZ @ 200 NONAME ; RadioStation::~RadioStation(void)
	?callSignString@RadioStation@@AAE?AVQString@@I@Z @ 201 NONAME ; class QString RadioStation::callSignString(unsigned int)
	?getStaticMetaObject@RadioScannerEngine@@SAABUQMetaObject@@XZ @ 202 NONAME ; struct QMetaObject const & RadioScannerEngine::getStaticMetaObject(void)
	?removeFrequency@RadioCarouselModel@@AAEXABVQModelIndex@@HH@Z @ 203 NONAME ; void RadioCarouselModel::removeFrequency(class QModelIndex const &, int, int)
	?modelIndexFromFrequency@RadioStationFilterModel@@QAE?AVQModelIndex@@I@Z @ 204 NONAME ; class QModelIndex RadioStationFilterModel::modelIndexFromFrequency(unsigned int)
	?stationDataChanged@RadioStationModel@@IAEXABVRadioStation@@@Z @ 205 NONAME ; void RadioStationModel::stationDataChanged(class RadioStation const &)
	?currentStation@RadioStationModel@@QAEAAVRadioStation@@XZ @ 206 NONAME ; class RadioStation & RadioStationModel::currentStation(void)
	?genre@RadioStation@@QBEHXZ @ 207 NONAME ; int RadioStation::genre(void) const
	?isDetached@RadioHistoryItem@@QBE_NXZ @ 208 NONAME ; bool RadioHistoryItem::isDetached(void) const
	?reset@RadioStation@@QAEXXZ @ 209 NONAME ; void RadioStation::reset(void)
	??0RadioStation@@QAE@XZ @ 210 NONAME ; RadioStation::RadioStation(void)
	??1RadioHistoryModel@@UAE@XZ @ 211 NONAME ; RadioHistoryModel::~RadioHistoryModel(void)
	?data@RadioCarouselModel@@UBE?AVQVariant@@ABVQModelIndex@@H@Z @ 212 NONAME ; class QVariant RadioCarouselModel::data(class QModelIndex const &, int) const
	?isSongRecognitionAppAvailable@RadioUiEngine@@QAE_NXZ @ 213 NONAME ; bool RadioUiEngine::isSongRecognitionAppAvailable(void)
	?isValid@RadioHistoryItem@@QBE_NXZ @ 214 NONAME ; bool RadioHistoryItem::isValid(void) const
	?setUrl@RadioStation@@QAEXABVQString@@@Z @ 215 NONAME ; void RadioStation::setUrl(class QString const &)
	?realIndex@RadioStationFilterModel@@QBE?AVQModelIndex@@ABV2@@Z @ 216 NONAME ; class QModelIndex RadioStationFilterModel::realIndex(class QModelIndex const &) const
	?data@RadioHistoryModel@@UBE?AVQVariant@@ABVQModelIndex@@H@Z @ 217 NONAME ; class QVariant RadioHistoryModel::data(class QModelIndex const &, int) const
	?modelIndexFromFrequency@RadioCarouselModel@@QAE?AVQModelIndex@@I@Z @ 218 NONAME ; class QModelIndex RadioCarouselModel::modelIndexFromFrequency(unsigned int)
	?isAntennaAttached@RadioUiEngine@@QBE_NXZ @ 219 NONAME ; bool RadioUiEngine::isAntennaAttached(void) const
	?emitRdsAvailabilityChanged@RadioUiEngine@@AAEX_N@Z @ 220 NONAME ; void RadioUiEngine::emitRdsAvailabilityChanged(bool)
	??0RadioStationFilterModel@@QAE@AAVRadioUiEngine@@PAVQObject@@@Z @ 221 NONAME ; RadioStationFilterModel::RadioStationFilterModel(class RadioUiEngine &, class QObject *)
	?presetIndex@RadioStation@@QBEHXZ @ 222 NONAME ; int RadioStation::presetIndex(void) const
	?staticMetaObject@RadioStationModel@@2UQMetaObject@@B @ 223 NONAME ; struct QMetaObject const RadioStationModel::staticMetaObject
	?currentSongReset@RadioHistoryModel@@IAEXXZ @ 224 NONAME ; void RadioHistoryModel::currentSongReset(void)
	?setFrequency@RadioStation@@QAEXI@Z @ 225 NONAME ; void RadioStation::setFrequency(unsigned int)
	?isRenamed@RadioStation@@QBE_NXZ @ 226 NONAME ; bool RadioStation::isRenamed(void) const
	?metaObject@RadioUiEngine@@UBEPBUQMetaObject@@XZ @ 227 NONAME ; struct QMetaObject const * RadioUiEngine::metaObject(void) const
	?removeStation@RadioStationModel@@QAEXABVRadioStation@@@Z @ 228 NONAME ; void RadioStationModel::removeStation(class RadioStation const &)
	?isUsingLoudspeaker@RadioUiEngine@@QBE_NXZ @ 229 NONAME ; bool RadioUiEngine::isUsingLoudspeaker(void) const
	?removeByFrequency@RadioStationModel@@QAEXI@Z @ 230 NONAME ; void RadioStationModel::removeByFrequency(unsigned int)
	??0RadioHistoryItem@@QAE@ABV0@@Z @ 231 NONAME ; RadioHistoryItem::RadioHistoryItem(class RadioHistoryItem const &)
	?audioRouteChanged@RadioUiEngine@@IAEX_N@Z @ 232 NONAME ; void RadioUiEngine::audioRouteChanged(bool)
	?findClosest@RadioCarouselModel@@QAE?AVRadioStation@@IW4Mode@StationSkip@@@Z @ 233 NONAME ; class RadioStation RadioCarouselModel::findClosest(unsigned int, enum StationSkip::Mode)
	?tr@RadioHistoryModel@@SA?AVQString@@PBD0H@Z @ 234 NONAME ; class QString RadioHistoryModel::tr(char const *, char const *, int)
	?emitRadioStatusChanged@RadioUiEngine@@AAEX_N@Z @ 235 NONAME ; void RadioUiEngine::emitRadioStatusChanged(bool)
	??0RadioScannerEngine@@QAE@AAVRadioUiEnginePrivate@@@Z @ 236 NONAME ; RadioScannerEngine::RadioScannerEngine(class RadioUiEnginePrivate &)
	??_ERadioUiEngine@@UAE@I@Z @ 237 NONAME ; RadioUiEngine::~RadioUiEngine(unsigned int)
	?setDynamicPsText@RadioStation@@QAEXABVQString@@@Z @ 238 NONAME ; void RadioStation::setDynamicPsText(class QString const &)
	?addRadioTextPlus@RadioHistoryModel@@AAEXHABVQString@@ABVRadioStation@@@Z @ 239 NONAME ; void RadioHistoryModel::addRadioTextPlus(int, class QString const &, class RadioStation const &)
	?d_func@RadioStationModel@@AAEPAVRadioStationModelPrivate@@XZ @ 240 NONAME ; class RadioStationModelPrivate * RadioStationModel::d_func(void)
	?setDetail@RadioStationModel@@QAEXV?$QFlags@W4DetailFlag@RadioStationModel@@@@@Z @ 241 NONAME ; void RadioStationModel::setDetail(class QFlags<enum RadioStationModel::DetailFlag>)
	?removeAll@RadioHistoryModel@@QAEXXZ @ 242 NONAME ; void RadioHistoryModel::removeAll(void)
	?rowCount@RadioStationFilterModel@@UBEHABVQModelIndex@@@Z @ 243 NONAME ; int RadioStationFilterModel::rowCount(class QModelIndex const &) const
	?artist@RadioHistoryItem@@QBE?AVQString@@XZ @ 244 NONAME ; class QString RadioHistoryItem::artist(void) const
	?reportChangedData@RadioHistoryModel@@AAEXHH@Z @ 245 NONAME ; void RadioHistoryModel::reportChangedData(int, int)
	?time@RadioHistoryItem@@QBE?AVQString@@XZ @ 246 NONAME ; class QString RadioHistoryItem::time(void) const
	?isType@RadioStation@@QBE_NV?$QFlags@W4TypeFlag@RadioStation@@@@@Z @ 247 NONAME ; bool RadioStation::isType(class QFlags<enum RadioStation::TypeFlag>) const
	?carouselModel@RadioUiEngine@@QAEPAVRadioCarouselModel@@XZ @ 248 NONAME ; class RadioCarouselModel * RadioUiEngine::carouselModel(void)
	?setTypeFilter@RadioStationFilterModel@@QAEXV?$QFlags@W4TypeFlag@RadioStation@@@@@Z @ 249 NONAME ; void RadioStationFilterModel::setTypeFilter(class QFlags<enum RadioStation::TypeFlag>)
	?volumeChanged@RadioUiEngine@@IAEXH@Z @ 250 NONAME ; void RadioUiEngine::volumeChanged(int)
	?title@RadioHistoryItem@@QBE?AVQString@@XZ @ 251 NONAME ; class QString RadioHistoryItem::title(void) const
	?data_ptr@RadioStation@@QAEAAPAVRadioStationPrivate@@XZ @ 252 NONAME ; class RadioStationPrivate * & RadioStation::data_ptr(void)
	?qt_metacast@RadioScannerEngine@@UAEPAXPBD@Z @ 253 NONAME ; void * RadioScannerEngine::qt_metacast(char const *)
	?tr@RadioCarouselModel@@SA?AVQString@@PBD0@Z @ 254 NONAME ; class QString RadioCarouselModel::tr(char const *, char const *)
	??1RadioHistoryItem@@UAE@XZ @ 255 NONAME ; RadioHistoryItem::~RadioHistoryItem(void)
	?antennaStatusChanged@RadioUiEngine@@IAEX_N@Z @ 256 NONAME ; void RadioUiEngine::antennaStatusChanged(bool)
	?qt_metacall@RadioStationModel@@UAEHW4Call@QMetaObject@@HPAPAX@Z @ 257 NONAME ; int RadioStationModel::qt_metacall(enum QMetaObject::Call, int, void * *)
	?setRadioText@RadioStation@@QAEXABVQString@@@Z @ 258 NONAME ; void RadioStation::setRadioText(class QString const &)
	?hasDataChanged@RadioStation@@QBE_NV?$QFlags@W4ChangeFlag@RadioStation@@@@@Z @ 259 NONAME ; bool RadioStation::hasDataChanged(class QFlags<enum RadioStation::ChangeFlag>) const
	?name@RadioStation@@QBE?AVQString@@XZ @ 260 NONAME ; class QString RadioStation::name(void) const
	?data@RadioStationModel@@UBE?AVQVariant@@ABVQModelIndex@@H@Z @ 261 NONAME ; class QVariant RadioStationModel::data(class QModelIndex const &, int) const
	?itemAdded@RadioHistoryModel@@IAEXXZ @ 262 NONAME ; void RadioHistoryModel::itemAdded(void)
	?getStaticMetaObject@RadioUiEngine@@SAABUQMetaObject@@XZ @ 263 NONAME ; struct QMetaObject const & RadioUiEngine::getStaticMetaObject(void)
	?launchSongRecognition@RadioUiEngine@@QAEXXZ @ 264 NONAME ; void RadioUiEngine::launchSongRecognition(void)
	?iterateCallSign@RadioStation@@AAE?AVQString@@HH@Z @ 265 NONAME ; class QString RadioStation::iterateCallSign(int, int)
	??0RadioUiEngine@@QAE@PAVQObject@@@Z @ 266 NONAME ; RadioUiEngine::RadioUiEngine(class QObject *)
	?setCurrentTime@RadioHistoryItem@@QAEXXZ @ 267 NONAME ; void RadioHistoryItem::setCurrentTime(void)
	?isTagged@RadioHistoryItem@@QBE_NXZ @ 268 NONAME ; bool RadioHistoryItem::isTagged(void) const
	?minFrequency@RadioUiEngine@@QBEIXZ @ 269 NONAME ; unsigned int RadioUiEngine::minFrequency(void) const
	?setShowTagged@RadioHistoryModel@@QAEX_N@Z @ 270 NONAME ; void RadioHistoryModel::setShowTagged(bool)
	?isFavorite@RadioStation@@QBE_NXZ @ 271 NONAME ; bool RadioStation::isFavorite(void) const
	?radioTextReceived@RadioStationModel@@IAEXABVRadioStation@@@Z @ 272 NONAME ; void RadioStationModel::radioTextReceived(class RadioStation const &)
	?staticMetaObject@RadioCarouselModel@@2UQMetaObject@@B @ 273 NONAME ; struct QMetaObject const RadioCarouselModel::staticMetaObject
	?seekingStarted@RadioUiEngine@@IAEXH@Z @ 274 NONAME ; void RadioUiEngine::seekingStarted(int)
	?isRecognizedByRds@RadioHistoryItem@@QBE_NXZ @ 275 NONAME ; bool RadioHistoryItem::isRecognizedByRds(void) const
	??_ERadioStationModel@@UAE@I@Z @ 276 NONAME ; RadioStationModel::~RadioStationModel(unsigned int)
	?openMusicStore@RadioUiEngine@@QAEXABVRadioHistoryItem@@W4MusicStore@1@@Z @ 277 NONAME ; void RadioUiEngine::openMusicStore(class RadioHistoryItem const &, enum RadioUiEngine::MusicStore)

