EXPORTS
	?GetAudioMode@CRadioEngine@@QBEHXZ @ 1 NONAME ; int CRadioEngine::GetAudioMode(void) const
	?PublishChannelNameL@CFMRadioPubSub@@QBEXABVTDesC16@@@Z @ 2 NONAME ; void CFMRadioPubSub::PublishChannelNameL(class TDesC16 const &) const
	?IsFlightModeEnabled@CRadioEngine@@QBEHXZ @ 3 NONAME ; int CRadioEngine::IsFlightModeEnabled(void) const
	?GetTunedFrequency@CRadioEngine@@QBEHXZ @ 4 NONAME ; int CRadioEngine::GetTunedFrequency(void) const
	?RtPlusAlbum@CFMRadioRdsReceiverBase@@QBEABVTDesC16@@XZ @ 5 NONAME ; class TDesC16 const & CFMRadioRdsReceiverBase::RtPlusAlbum(void) const
	?PublishApplicationRunningStateL@CFMRadioPubSub@@QBEXW4TFMRadioPSApplicationRunningState@@@Z @ 6 NONAME ; void CFMRadioPubSub::PublishApplicationRunningStateL(enum TFMRadioPSApplicationRunningState) const
	?SetRdsAfSearchEnable@CRadioEngine@@QAEXH@Z @ 7 NONAME ; void CRadioEngine::SetRdsAfSearchEnable(int)
	?SetAudioOutput@CRadioEngine@@QAEXW4TFMRadioAudioOutput@1@@Z @ 8 NONAME ; void CRadioEngine::SetAudioOutput(enum CRadioEngine::TFMRadioAudioOutput)
	?SetVolume@CRadioEngine@@QAEXH@Z @ 9 NONAME ; void CRadioEngine::SetVolume(int)
	?MusicStoreNoteDisplayed@CRadioEngine@@QAEHXZ @ 10 NONAME ; int CRadioEngine::MusicStoreNoteDisplayed(void)
	?ScanUp@CRadioEngine@@QAEXXZ @ 11 NONAME ; void CRadioEngine::ScanUp(void)
	?IsMuteOn@CRadioEngine@@QBEHXZ @ 12 NONAME ; int CRadioEngine::IsMuteOn(void) const
	?RegionIdAtIndex@CRadioEngine@@QBE?AW4TFMRadioRegionSetting@@H@Z @ 13 NONAME ; enum TFMRadioRegionSetting CRadioEngine::RegionIdAtIndex(int) const
	?GetRegionL@CRadioEngine@@QBE?AW4TFMRadioRegionSetting@@XZ @ 14 NONAME ; enum TFMRadioRegionSetting CRadioEngine::GetRegionL(void) const
	?TunePresetL@CRadioEngine@@QAEXH@Z @ 15 NONAME ; void CRadioEngine::TunePresetL(int)
	?Tune@CRadioEngine@@QAEXHW4TRadioMode@1@@Z @ 16 NONAME ; void CRadioEngine::Tune(int, enum CRadioEngine::TRadioMode)
	?IsRadioOn@CRadioEngine@@QAEHXZ @ 17 NONAME ; int CRadioEngine::IsRadioOn(void)
	?RemoveObserver@CFMRadioRdsReceiverBase@@QAEXPAVMFMRadioRdsObserver@@@Z @ 18 NONAME ; void CFMRadioRdsReceiverBase::RemoveObserver(class MFMRadioRdsObserver *)
	?GetAudioOutput@CRadioEngine@@QBE?AW4TFMRadioAudioOutput@1@XZ @ 19 NONAME ; enum CRadioEngine::TFMRadioAudioOutput CRadioEngine::GetAudioOutput(void) const
	?FrequencySetByRdsAf@CRadioEngine@@QBEHXZ @ 20 NONAME ; int CRadioEngine::FrequencySetByRdsAf(void) const
	?GetPresetNameAndFrequencyL@CRadioEngine@@QAEXHAAVTDes16@@AAH@Z @ 21 NONAME ; void CRadioEngine::GetPresetNameAndFrequencyL(int, class TDes16 &, int &)
	?DeletePresetL@CRadioEngine@@QAEXH@Z @ 22 NONAME ; void CRadioEngine::DeletePresetL(int)
	?AutomaticSwitchingEnabled@CFMRadioRdsReceiverBase@@QBEHXZ @ 23 NONAME ; int CFMRadioRdsReceiverBase::AutomaticSwitchingEnabled(void) const
	?SignalAvailable@CFMRadioRdsReceiverBase@@QBEHXZ @ 24 NONAME ; int CFMRadioRdsReceiverBase::SignalAvailable(void) const
	?PublishRDSRadioTextL@CFMRadioPubSub@@QBEXABVTDesC16@@@Z @ 25 NONAME ; void CFMRadioPubSub::PublishRDSRadioTextL(class TDesC16 const &) const
	?ProgrammeServiceNameType@CFMRadioRdsReceiverBase@@QBE?AW4TFMRadioProgrammeSeviceType@1@XZ @ 26 NONAME ; enum CFMRadioRdsReceiverBase::TFMRadioProgrammeSeviceType CFMRadioRdsReceiverBase::ProgrammeServiceNameType(void) const
	?AddObserver@CFMRadioRdsReceiverBase@@QAEXPAVMFMRadioRdsObserver@@@Z @ 27 NONAME ; void CFMRadioRdsReceiverBase::AddObserver(class MFMRadioRdsObserver *)
	?RadioOn@CRadioEngine@@QAEXXZ @ 28 NONAME ; void CRadioEngine::RadioOn(void)
	?IsInCall@CRadioEngine@@QBEHXZ @ 29 NONAME ; int CRadioEngine::IsInCall(void) const
	?FillListWithRegionDataL@CRadioEngine@@QBEXAAVCDesC16Array@@@Z @ 30 NONAME ; void CRadioEngine::FillListWithRegionDataL(class CDesC16Array &) const
	?SetControlEventObserver@CFMRadioPubSub@@QAEXPAVMFMRadioControlEventObserver@@@Z @ 31 NONAME ; void CFMRadioPubSub::SetControlEventObserver(class MFMRadioControlEventObserver *)
	?FrequencyStepSize@CRadioEngine@@QBEKXZ @ 32 NONAME ; unsigned long CRadioEngine::FrequencyStepSize(void) const
	?SetMuteOn@CRadioEngine@@QAEXH@Z @ 33 NONAME ; void CRadioEngine::SetMuteOn(int)
	?GetPresetNameL@CRadioEngine@@QAEAAV?$TBuf@$0CA@@@H@Z @ 34 NONAME ; class TBuf<32> & CRadioEngine::GetPresetNameL(int)
	?NewL@CRadioEngine@@SAPAV1@AAVMRadioEngineStateChangeCallback@@@Z @ 35 NONAME ; class CRadioEngine * CRadioEngine::NewL(class MRadioEngineStateChangeCallback &)
	?CancelScanLocalStationsScan@CRadioEngine@@QAEXXZ @ 36 NONAME ; void CRadioEngine::CancelScanLocalStationsScan(void)
	?GetRTPlusSupportLevel@CRadioEngine@@QAE?AW4TFMRadioRTPlusLevel@@XZ @ 37 NONAME ; enum TFMRadioRTPlusLevel CRadioEngine::GetRTPlusSupportLevel(void)
	?SetCurrentPresetIndex@CRadioEngine@@QAEXH@Z @ 38 NONAME ; void CRadioEngine::SetCurrentPresetIndex(int)
	?IsAudioRoutingPossible@CRadioEngine@@QBEHXZ @ 39 NONAME ; int CRadioEngine::IsAudioRoutingPossible(void) const
	?GetMaxVolume@CRadioEngine@@QBEHXZ @ 40 NONAME ; int CRadioEngine::GetMaxVolume(void) const
	?RtPlusSong@CFMRadioRdsReceiverBase@@QBEABVTDesC16@@XZ @ 41 NONAME ; class TDesC16 const & CFMRadioRdsReceiverBase::RtPlusSong(void) const
	?UpdatedStartupCount@CRadioEngine@@QBEHXZ @ 42 NONAME ; int CRadioEngine::UpdatedStartupCount(void) const
	?RadioOff@CRadioEngine@@QAEXXZ @ 43 NONAME ; void CRadioEngine::RadioOff(void)
	?SetRegionIdL@CRadioEngine@@QBEXH@Z @ 44 NONAME ; void CRadioEngine::SetRegionIdL(int) const
	?PresetUrlL@CRadioEngine@@QAEHHAAVTDes16@@@Z @ 45 NONAME ; int CRadioEngine::PresetUrlL(int, class TDes16 &)
	?GetVolume@CRadioEngine@@QBEHXZ @ 46 NONAME ; int CRadioEngine::GetVolume(void) const
	?PublishStateL@CFMRadioPubSub@@QBEXH@Z @ 47 NONAME ; void CFMRadioPubSub::PublishStateL(int) const
	?RequestTunerControl@CRadioEngine@@QBEXXZ @ 48 NONAME ; void CRadioEngine::RequestTunerControl(void) const
	?PublishPresetCountL@CFMRadioPubSub@@QBEXH@Z @ 49 NONAME ; void CFMRadioPubSub::PublishPresetCountL(int) const
	?SetMusicStoreNoteDisplayed@CRadioEngine@@QAEXXZ @ 50 NONAME ; void CRadioEngine::SetMusicStoreNoteDisplayed(void)
	?PubSubL@CRadioEngine@@QBEAAVCFMRadioPubSub@@XZ @ 51 NONAME ; class CFMRadioPubSub & CRadioEngine::PubSubL(void) const
	?SetTunerModeOn@CRadioEngine@@QAEXXZ @ 52 NONAME ; void CRadioEngine::SetTunerModeOn(void)
	?IsOfflineProfileL@CRadioEngine@@QAEHXZ @ 53 NONAME ; int CRadioEngine::IsOfflineProfileL(void)
	??1CRadioEngine@@UAE@XZ @ 54 NONAME ; CRadioEngine::~CRadioEngine(void)
	?PublishFrequencyL@CFMRadioPubSub@@QBEXK@Z @ 55 NONAME ; void CFMRadioPubSub::PublishFrequencyL(unsigned long) const
	?RegionId@CRadioEngine@@QBEHXZ @ 56 NONAME ; int CRadioEngine::RegionId(void) const
	?RadioSettings@CRadioEngine@@QAEAAVTRadioSettings@@XZ @ 57 NONAME ; class TRadioSettings & CRadioEngine::RadioSettings(void)
	?RtPlusArtist@CFMRadioRdsReceiverBase@@QBEABVTDesC16@@XZ @ 58 NONAME ; class TDesC16 const & CFMRadioRdsReceiverBase::RtPlusArtist(void) const
	?GetRadioMode@CRadioEngine@@QBE?AW4TRadioMode@1@XZ @ 59 NONAME ; enum CRadioEngine::TRadioMode CRadioEngine::GetRadioMode(void) const
	?GetPresetIndex@CRadioEngine@@QBEHXZ @ 60 NONAME ; int CRadioEngine::GetPresetIndex(void) const
	?SetAudioMode@CRadioEngine@@QAEXW4TFMRadioAudioMode@1@@Z @ 61 NONAME ; void CRadioEngine::SetAudioMode(enum CRadioEngine::TFMRadioAudioMode)
	?DecimalCount@CRadioEngine@@QBEHXZ @ 62 NONAME ; int CRadioEngine::DecimalCount(void) const
	?ScanDown@CRadioEngine@@QAEXXZ @ 63 NONAME ; void CRadioEngine::ScanDown(void)
	?GetPresetFrequencyL@CRadioEngine@@QBEHH@Z @ 64 NONAME ; int CRadioEngine::GetPresetFrequencyL(int) const
	?SaveUrlToPresetL@CRadioEngine@@QAEXHABVTDesC16@@@Z @ 65 NONAME ; void CRadioEngine::SaveUrlToPresetL(int, class TDesC16 const &)
	?CancelScan@CRadioEngine@@QAEXXZ @ 66 NONAME ; void CRadioEngine::CancelScan(void)
	?IsRdsAfSearchEnabled@TRadioSettings@@QAEHXZ @ 67 NONAME ; int TRadioSettings::IsRdsAfSearchEnabled(void)
	?GetFrequencyBandRange@CRadioEngine@@QAEHAAH0@Z @ 68 NONAME ; int CRadioEngine::GetFrequencyBandRange(int &, int &)
	?SetPresetNameFrequencyL@CRadioEngine@@QAEXHABV?$TBuf@$0CA@@@H@Z @ 69 NONAME ; void CRadioEngine::SetPresetNameFrequencyL(int, class TBuf<32> const &, int)
	?InitializeRadio@CRadioEngine@@QAEXXZ @ 70 NONAME ; void CRadioEngine::InitializeRadio(void)
	?ProgrammeService@CFMRadioRdsReceiverBase@@QBEABVTDesC16@@XZ @ 71 NONAME ; class TDesC16 const & CFMRadioRdsReceiverBase::ProgrammeService(void) const
	?RtPlusProgramUrl@CFMRadioRdsReceiverBase@@QBEABVTDesC16@@XZ @ 72 NONAME ; class TDesC16 const & CFMRadioRdsReceiverBase::RtPlusProgramUrl(void) const
	?IsHeadsetConnected@CRadioEngine@@QBEHXZ @ 73 NONAME ; int CRadioEngine::IsHeadsetConnected(void) const
	?PublishRDSProgramServiceL@CFMRadioPubSub@@QBEXABVTDesC16@@@Z @ 74 NONAME ; void CFMRadioPubSub::PublishRDSProgramServiceL(class TDesC16 const &) const
	?RdsReceiver@CRadioEngine@@QAEAAVCFMRadioRdsReceiverBase@@XZ @ 75 NONAME ; class CFMRadioRdsReceiverBase & CRadioEngine::RdsReceiver(void)

