EXPORTS
	_ZN11RadioWindow11qt_metacallEN11QMetaObject4CallEiPPv @ 1 NONAME
	_ZN11RadioWindow11qt_metacastEPKc @ 2 NONAME
	_ZN11RadioWindow12activateViewEP13RadioViewBaseRK7QString6QFlagsIN2Hb14ViewSwitchFlagEE @ 3 NONAME
	_ZN11RadioWindow15showVolumeLevelEi @ 4 NONAME
	_ZN11RadioWindow16activateMainViewEv @ 5 NONAME
	_ZN11RadioWindow16showErrorMessageERK7QString @ 6 NONAME
	_ZN11RadioWindow16staticMetaObjectE @ 7 NONAME DATA 16
	_ZN11RadioWindow17updateOrientationEN2Qt11OrientationE @ 8 NONAME
	_ZN11RadioWindow18orientationSectionEv @ 9 NONAME
	_ZN11RadioWindow19activateHistoryViewEv @ 10 NONAME
	_ZN11RadioWindow19getStaticMetaObjectEv @ 11 NONAME
	_ZN11RadioWindow19updateAntennaStatusEb @ 12 NONAME
	_ZN11RadioWindow20activateStationsViewEv @ 13 NONAME
	_ZN11RadioWindow4initEv @ 14 NONAME
	_ZN11RadioWindow8initViewEv @ 15 NONAME
	_ZN11RadioWindowC1EP7QWidget @ 16 NONAME
	_ZN11RadioWindowC2EP7QWidget @ 17 NONAME
	_ZN11RadioWindowD0Ev @ 18 NONAME
	_ZN11RadioWindowD1Ev @ 19 NONAME
	_ZN11RadioWindowD2Ev @ 20 NONAME
	_ZN16RadioFadingLabel11qt_metacallEN11QMetaObject4CallEiPPv @ 21 NONAME
	_ZN16RadioFadingLabel11qt_metacastEPKc @ 22 NONAME
	_ZN16RadioFadingLabel11startEffectERK7QStringPKc @ 23 NONAME
	_ZN16RadioFadingLabel14effectFinishedEN8HbEffect12EffectStatusE @ 24 NONAME
	_ZN16RadioFadingLabel16setFadingEnabledEb @ 25 NONAME
	_ZN16RadioFadingLabel16staticMetaObjectE @ 26 NONAME DATA 16
	_ZN16RadioFadingLabel19getStaticMetaObjectEv @ 27 NONAME
	_ZN16RadioFadingLabel20setTextWithoutFadingERK7QString @ 28 NONAME
	_ZN16RadioFadingLabel7setTextERK7QString @ 29 NONAME
	_ZN16RadioFadingLabel8trimHtmlERK7QString @ 30 NONAME
	_ZN16RadioFadingLabelC1EP13QGraphicsItem @ 31 NONAME
	_ZN16RadioFadingLabelC2EP13QGraphicsItem @ 32 NONAME
	_ZN19RadioFrequencyStrip10drawPixmapEj5QListI12RadioStationEP18RadioFrequencyItem @ 33 NONAME
	_ZN19RadioFrequencyStrip10timerEventEP11QTimerEvent @ 34 NONAME
	_ZN19RadioFrequencyStrip10updateItemEP18RadioFrequencyItemjj @ 35 NONAME
	_ZN19RadioFrequencyStrip11changeEventEP6QEvent @ 36 NONAME
	_ZN19RadioFrequencyStrip11hideButtonsEv @ 37 NONAME
	_ZN19RadioFrequencyStrip11initButtonsEv @ 38 NONAME
	_ZN19RadioFrequencyStrip11qt_metacallEN11QMetaObject4CallEiPPv @ 39 NONAME
	_ZN19RadioFrequencyStrip11qt_metacastEPKc @ 40 NONAME
	_ZN19RadioFrequencyStrip11resizeEventEP25QGraphicsSceneResizeEvent @ 41 NONAME
	_ZN19RadioFrequencyStrip11showButtonsEv @ 42 NONAME
	_ZN19RadioFrequencyStrip12gestureEventEP13QGestureEvent @ 43 NONAME
	_ZN19RadioFrequencyStrip12initSelectorEv @ 44 NONAME
	_ZN19RadioFrequencyStrip12setFrequencyEjiN6Scroll9DirectionE @ 45 NONAME
	_ZN19RadioFrequencyStrip13initPositionsEv @ 46 NONAME
	_ZN19RadioFrequencyStrip13removeStationERK11QModelIndexii @ 47 NONAME
	_ZN19RadioFrequencyStrip13seekRequestedEi @ 48 NONAME
	_ZN19RadioFrequencyStrip13setItemHeightEi @ 49 NONAME
	_ZN19RadioFrequencyStrip13skipRequestedEi @ 50 NONAME
	_ZN19RadioFrequencyStrip13updateStationERK11QModelIndexii @ 51 NONAME
	_ZN19RadioFrequencyStrip14initEmptyItemsEv @ 52 NONAME
	_ZN19RadioFrequencyStrip14updateAllItemsEv @ 53 NONAME
	_ZN19RadioFrequencyStrip14updateFavoriteERK12RadioStation @ 54 NONAME
	_ZN19RadioFrequencyStrip15addFrequencyPosEijP18RadioFrequencyItem @ 55 NONAME
	_ZN19RadioFrequencyStrip15mousePressEventEP24QGraphicsSceneMouseEvent @ 56 NONAME
	_ZN19RadioFrequencyStrip15setScanningModeEb @ 57 NONAME
	_ZN19RadioFrequencyStrip16cancelManualSeekEv @ 58 NONAME
	_ZN19RadioFrequencyStrip16frequencyChangedEjii @ 59 NONAME
	_ZN19RadioFrequencyStrip16handleLeftButtonEv @ 60 NONAME
	_ZN19RadioFrequencyStrip16scrollPosChangedEv @ 61 NONAME
	_ZN19RadioFrequencyStrip16staticMetaObjectE @ 62 NONAME DATA 16
	_ZN19RadioFrequencyStrip16toggleManualSeekEv @ 63 NONAME
	_ZN19RadioFrequencyStrip17addScannedStationERK12RadioStation @ 64 NONAME
	_ZN19RadioFrequencyStrip17handleRightButtonEv @ 65 NONAME
	_ZN19RadioFrequencyStrip17manualSeekChangedEb @ 66 NONAME
	_ZN19RadioFrequencyStrip17mouseReleaseEventEP24QGraphicsSceneMouseEvent @ 67 NONAME
	_ZN19RadioFrequencyStrip17scrollToFrequencyEjN6Scroll9DirectionEiN10TuneReason6ReasonE @ 68 NONAME
	_ZN19RadioFrequencyStrip18handleScrollingEndEv @ 69 NONAME
	_ZN19RadioFrequencyStrip19createItemPrimitiveEP13QGraphicsItem @ 70 NONAME
	_ZN19RadioFrequencyStrip19getStaticMetaObjectEv @ 71 NONAME
	_ZN19RadioFrequencyStrip19updateItemPrimitiveEP13QGraphicsItemi @ 72 NONAME
	_ZN19RadioFrequencyStrip20emitFrequencyChangedEj @ 73 NONAME
	_ZN19RadioFrequencyStrip20handleLongLeftButtonEv @ 74 NONAME
	_ZN19RadioFrequencyStrip21handleLongRightButtonEv @ 75 NONAME
	_ZN19RadioFrequencyStrip21updateStationsInRangeEiib @ 76 NONAME
	_ZN19RadioFrequencyStrip4initEP13RadioUiEngineR13RadioUiLoader @ 77 NONAME
	_ZN19RadioFrequencyStrip7makeTabEfi @ 78 NONAME
	_ZN19RadioFrequencyStrip9initModelEv @ 79 NONAME
	_ZN19RadioFrequencyStripC1Ev @ 80 NONAME
	_ZN19RadioFrequencyStripC2Ev @ 81 NONAME
	_ZN20RadioStationCarousel10timerFiredEv @ 82 NONAME
	_ZN20RadioStationCarousel11findStationEj @ 83 NONAME
	_ZN20RadioStationCarousel11qt_metacallEN11QMetaObject4CallEiPPv @ 84 NONAME
	_ZN20RadioStationCarousel11qt_metacastEPKc @ 85 NONAME
	_ZN20RadioStationCarousel11resizeEventEP25QGraphicsSceneResizeEvent @ 86 NONAME
	_ZN20RadioStationCarousel11setInfoTextEN16CarouselInfoText4TypeE @ 87 NONAME
	_ZN20RadioStationCarousel12cleanRdsDataEv @ 88 NONAME
	_ZN20RadioStationCarousel12gestureEventEP13QGestureEvent @ 89 NONAME
	_ZN20RadioStationCarousel12setFrequencyEjiN6Scroll9DirectionE @ 90 NONAME
	_ZN20RadioStationCarousel13clearInfoTextEv @ 91 NONAME
	_ZN20RadioStationCarousel13drawOffScreenER8QPainter @ 92 NONAME
	_ZN20RadioStationCarousel13localizeGenreEi @ 93 NONAME
	_ZN20RadioStationCarousel13scrollToIndexEiN6Scroll9DirectionE6QFlagsINS_10ScrollFlagEE @ 94 NONAME
	_ZN20RadioStationCarousel13skipRequestedEi @ 95 NONAME
	_ZN20RadioStationCarousel14setCenterIndexEi6QFlagsINS_10ScrollFlagEE @ 96 NONAME
	_ZN20RadioStationCarousel14updateStationsEv @ 97 NONAME
	_ZN20RadioStationCarousel15cancelAnimationEv @ 98 NONAME
	_ZN20RadioStationCarousel15mousePressEventEP24QGraphicsSceneMouseEvent @ 99 NONAME
	_ZN20RadioStationCarousel15setFavoriteIconERK6HbIcon @ 100 NONAME
	_ZN20RadioStationCarousel15setScanningModeEb @ 101 NONAME
	_ZN20RadioStationCarousel15updateRadioTextERK12RadioStation @ 102 NONAME
	_ZN20RadioStationCarousel16frequencyChangedEjii @ 103 NONAME
	_ZN20RadioStationCarousel16handleUrlClickedERK12RadioStation @ 104 NONAME
	_ZN20RadioStationCarousel16scrollPosChangedERK7QPointF @ 105 NONAME
	_ZN20RadioStationCarousel16staticMetaObjectE @ 106 NONAME DATA 16
	_ZN20RadioStationCarousel17adjustAfterScrollEv @ 107 NONAME
	_ZN20RadioStationCarousel17animateNewStationERK12RadioStation @ 108 NONAME
	_ZN20RadioStationCarousel17handleIconClickedERK12RadioStation @ 109 NONAME
	_ZN20RadioStationCarousel17setAutoScrollTimeEi @ 110 NONAME
	_ZN20RadioStationCarousel17setManualSeekModeEb @ 111 NONAME
	_ZN20RadioStationCarousel18setNonFavoriteIconERK6HbIcon @ 112 NONAME
	_ZN20RadioStationCarousel19calculateDifferenceEiRN6Scroll9DirectionE @ 113 NONAME
	_ZN20RadioStationCarousel19getStaticMetaObjectEv @ 114 NONAME
	_ZN20RadioStationCarousel19updateAntennaStatusEb @ 115 NONAME
	_ZN20RadioStationCarousel21scanAnimationFinishedEv @ 116 NONAME
	_ZN20RadioStationCarousel22handleRadiotextClickedERK12RadioStation @ 117 NONAME
	_ZN20RadioStationCarousel24setAlternateSkippingModeEb @ 118 NONAME
	_ZN20RadioStationCarousel4initER13RadioUiLoaderP13RadioUiEngine @ 119 NONAME
	_ZN20RadioStationCarousel4skipEN11StationSkip4ModeE @ 120 NONAME
	_ZN20RadioStationCarousel6updateERK12RadioStation @ 121 NONAME
	_ZN20RadioStationCarousel8uiEngineEv @ 122 NONAME
	_ZN20RadioStationCarousel9adjustPosEi @ 123 NONAME
	_ZN20RadioStationCarousel9nextIndexEi @ 124 NONAME
	_ZN20RadioStationCarousel9prevIndexEi @ 125 NONAME
	_ZN20RadioStationCarousel9showEventEP10QShowEvent @ 126 NONAME
	_ZN20RadioStationCarousel9trimIndexEi @ 127 NONAME
	_ZN20RadioStationCarouselC1EP13QGraphicsItem @ 128 NONAME
	_ZN20RadioStationCarouselC2EP13QGraphicsItem @ 129 NONAME
	_ZNK11RadioWindow10metaObjectEv @ 130 NONAME
	_ZNK16RadioFadingLabel10metaObjectEv @ 131 NONAME
	_ZNK19RadioFrequencyStrip10itemHeightEv @ 132 NONAME
	_ZNK19RadioFrequencyStrip10metaObjectEv @ 133 NONAME
	_ZNK19RadioFrequencyStrip11selectorPosEv @ 134 NONAME
	_ZNK19RadioFrequencyStrip18isInManualSeekModeEv @ 135 NONAME
	_ZNK19RadioFrequencyStrip9frequencyEv @ 136 NONAME
	_ZNK20RadioStationCarousel10metaObjectEv @ 137 NONAME
	_ZNK20RadioStationCarousel12favoriteIconEv @ 138 NONAME
	_ZNK20RadioStationCarousel13isInitializedEv @ 139 NONAME
	_ZNK20RadioStationCarousel14autoScrollTimeEv @ 140 NONAME
	_ZNK20RadioStationCarousel14isInManualSeekEv @ 141 NONAME
	_ZNK20RadioStationCarousel15nonFavoriteIconEv @ 142 NONAME
	_ZNK20RadioStationCarousel16isInScanningModeEv @ 143 NONAME
	_ZNK20RadioStationCarousel17isAntennaAttachedEv @ 144 NONAME
	_ZNK20RadioStationCarousel18isScrollingAllowedEv @ 145 NONAME
	_ZTI11RadioWindow @ 146 NONAME
	_ZTI16RadioFadingLabel @ 147 NONAME
	_ZTI19RadioFrequencyStrip @ 148 NONAME
	_ZTI20RadioStationCarousel @ 149 NONAME
	_ZTV11RadioWindow @ 150 NONAME
	_ZTV16RadioFadingLabel @ 151 NONAME
	_ZTV19RadioFrequencyStrip @ 152 NONAME
	_ZTV20RadioStationCarousel @ 153 NONAME
	_ZThn28_N20RadioStationCarousel11findStationEj @ 154 NONAME
	_ZThn28_N20RadioStationCarousel13localizeGenreEi @ 155 NONAME
	_ZThn28_N20RadioStationCarousel16handleUrlClickedERK12RadioStation @ 156 NONAME
	_ZThn28_N20RadioStationCarousel17handleIconClickedERK12RadioStation @ 157 NONAME
	_ZThn28_N20RadioStationCarousel22handleRadiotextClickedERK12RadioStation @ 158 NONAME
	_ZThn28_NK20RadioStationCarousel12favoriteIconEv @ 159 NONAME
	_ZThn28_NK20RadioStationCarousel14isInManualSeekEv @ 160 NONAME
	_ZThn28_NK20RadioStationCarousel15nonFavoriteIconEv @ 161 NONAME
	_ZThn8_N11RadioWindowD0Ev @ 162 NONAME
	_ZThn8_N11RadioWindowD1Ev @ 163 NONAME
	_ZThn8_N19RadioFrequencyStrip15mousePressEventEP24QGraphicsSceneMouseEvent @ 164 NONAME
	_ZThn8_N19RadioFrequencyStrip17mouseReleaseEventEP24QGraphicsSceneMouseEvent @ 165 NONAME
	_ZThn8_N20RadioStationCarousel15mousePressEventEP24QGraphicsSceneMouseEvent @ 166 NONAME
	_ZN20RadioStationCarousel12setLandscapeEb @ 167 NONAME

