EXPORTS
	_ZN12RadioStation11setFavoriteEb @ 1 NONAME
	_ZN12RadioStation12callSignCharEj @ 2 NONAME
	_ZN12RadioStation12setFrequencyEj @ 3 NONAME
	_ZN12RadioStation12setRadioTextERK7QString @ 4 NONAME
	_ZN12RadioStation14callSignStringEj @ 5 NONAME
	_ZN12RadioStation14parseFrequencyEj @ 6 NONAME
	_ZN12RadioStation14setChangeFlagsE6QFlagsINS_10ChangeFlagEE @ 7 NONAME
	_ZN12RadioStation14setPresetIndexEi @ 8 NONAME
	_ZN12RadioStation15iterateCallSignEii @ 9 NONAME
	_ZN12RadioStation16piCodeToCallSignEj @ 10 NONAME
	_ZN12RadioStation16resetChangeFlagsEv @ 11 NONAME
	_ZN12RadioStation16setDynamicPsTextERK7QString @ 12 NONAME
	_ZN12RadioStation16setRadioTextPlusEiRK7QString @ 13 NONAME
	_ZN12RadioStation18setUserDefinedNameERK7QString @ 14 NONAME
	_ZN12RadioStation5resetEv @ 15 NONAME
	_ZN12RadioStation6setUrlERK7QString @ 16 NONAME
	_ZN12RadioStation7setNameERK7QString @ 17 NONAME
	_ZN12RadioStation7setTypeE6QFlagsINS_8TypeFlagEE @ 18 NONAME
	_ZN12RadioStation8setGenreEi @ 19 NONAME
	_ZN12RadioStation9setPiCodeEiN11RadioRegion6RegionE @ 20 NONAME
	_ZN12RadioStation9setPsTypeE6QFlagsINS_10PsTypeFlagEE @ 21 NONAME
	_ZN12RadioStation9unsetTypeE6QFlagsINS_8TypeFlagEE @ 22 NONAME
	_ZN12RadioStationC1ERKS_ @ 23 NONAME
	_ZN12RadioStationC1Eij @ 24 NONAME
	_ZN12RadioStationC1Ev @ 25 NONAME
	_ZN12RadioStationC2ERKS_ @ 26 NONAME
	_ZN12RadioStationC2Eij @ 27 NONAME
	_ZN12RadioStationC2Ev @ 28 NONAME
	_ZN12RadioStationD0Ev @ 29 NONAME
	_ZN12RadioStationD1Ev @ 30 NONAME
	_ZN12RadioStationD2Ev @ 31 NONAME
	_ZN12RadioStationaSERKS_ @ 32 NONAME
	_ZN13RadioUiEngine10lastVolumeEv @ 33 NONAME
	_ZN13RadioUiEngine10setPowerOnEv @ 34 NONAME
	_ZN13RadioUiEngine10toggleMuteEv @ 35 NONAME
	_ZN13RadioUiEngine11muteChangedEb @ 36 NONAME
	_ZN13RadioUiEngine11qt_metacallEN11QMetaObject4CallEiPPv @ 37 NONAME
	_ZN13RadioUiEngine11qt_metacastEPKc @ 38 NONAME
	_ZN13RadioUiEngine11seekStationEi @ 39 NONAME
	_ZN13RadioUiEngine11setPowerOffEi @ 40 NONAME
	_ZN13RadioUiEngine11skipStationEN11StationSkip4ModeEji @ 41 NONAME
	_ZN13RadioUiEngine12historyModelEv @ 42 NONAME
	_ZN13RadioUiEngine12setFrequencyEji @ 43 NONAME
	_ZN13RadioUiEngine12stationModelEv @ 44 NONAME
	_ZN13RadioUiEngine13genreToStringEiN11GenreTarget6TargetE @ 45 NONAME
	_ZN13RadioUiEngine13launchBrowserERK7QString @ 46 NONAME
	_ZN13RadioUiEngine13scannerEngineEv @ 47 NONAME
	_ZN13RadioUiEngine13volumeChangedEi @ 48 NONAME
	_ZN13RadioUiEngine14openMusicStoreERK16RadioHistoryItemNS_10MusicStoreE @ 49 NONAME
	_ZN13RadioUiEngine14seekingStartedEi @ 50 NONAME
	_ZN13RadioUiEngine15emitMuteChangedEb @ 51 NONAME
	_ZN13RadioUiEngine15stationsInRangeEjj @ 52 NONAME
	_ZN13RadioUiEngine16isFirstTimeStartEv @ 53 NONAME
	_ZN13RadioUiEngine16staticMetaObjectE @ 54 NONAME DATA 16
	_ZN13RadioUiEngine16toggleAudioRouteEv @ 55 NONAME
	_ZN13RadioUiEngine16tunedToFrequencyEji @ 56 NONAME
	_ZN13RadioUiEngine17addRecognizedSongERK7QStringS2_RK12RadioStation @ 57 NONAME
	_ZN13RadioUiEngine17audioRouteChangedEb @ 58 NONAME
	_ZN13RadioUiEngine17emitVolumeChangedEi @ 59 NONAME
	_ZN13RadioUiEngine17launchRadioServerEv @ 60 NONAME
	_ZN13RadioUiEngine17powerOffRequestedEv @ 61 NONAME
	_ZN13RadioUiEngine17setManualSeekModeEb @ 62 NONAME
	_ZN13RadioUiEngine18emitSeekingStartedEN4Seek9DirectionE @ 63 NONAME
	_ZN13RadioUiEngine18lastTunedFrequencyEj @ 64 NONAME
	_ZN13RadioUiEngine18radioStatusChangedEb @ 65 NONAME
	_ZN13RadioUiEngine19createScannerEngineEv @ 66 NONAME
	_ZN13RadioUiEngine19getStaticMetaObjectEv @ 67 NONAME
	_ZN13RadioUiEngine20antennaStatusChangedEb @ 68 NONAME
	_ZN13RadioUiEngine20emitTunedToFrequencyEji @ 69 NONAME
	_ZN13RadioUiEngine21emitAudioRouteChangedEb @ 70 NONAME
	_ZN13RadioUiEngine21launchSongRecognitionEv @ 71 NONAME
	_ZN13RadioUiEngine22emitRadioStatusChangedEb @ 72 NONAME
	_ZN13RadioUiEngine22rdsAvailabilityChangedEb @ 73 NONAME
	_ZN13RadioUiEngine24emitAntennaStatusChangedEb @ 74 NONAME
	_ZN13RadioUiEngine26emitRdsAvailabilityChangedEb @ 75 NONAME
	_ZN13RadioUiEngine26setFirstTimeStartPerformedEb @ 76 NONAME
	_ZN13RadioUiEngine29isSongRecognitionAppAvailableEv @ 77 NONAME
	_ZN13RadioUiEngine4initEv @ 78 NONAME
	_ZN13RadioUiEngine7setMuteEb @ 79 NONAME
	_ZN13RadioUiEngine8settingsEv @ 80 NONAME
	_ZN13RadioUiEngine9setVolumeEi @ 81 NONAME
	_ZN13RadioUiEngineC1EP7QObject @ 82 NONAME
	_ZN13RadioUiEngineC2EP7QObject @ 83 NONAME
	_ZN13RadioUiEngineD0Ev @ 84 NONAME
	_ZN13RadioUiEngineD1Ev @ 85 NONAME
	_ZN13RadioUiEngineD2Ev @ 86 NONAME
	_ZN16RadioHistoryItem10setStationERK7QString @ 87 NONAME
	_ZN16RadioHistoryItem12setFrequencyEj @ 88 NONAME
	_ZN16RadioHistoryItem14setCurrentTimeEv @ 89 NONAME
	_ZN16RadioHistoryItem5resetEv @ 90 NONAME
	_ZN16RadioHistoryItem8setTitleERK7QString @ 91 NONAME
	_ZN16RadioHistoryItem9setArtistERK7QString @ 92 NONAME
	_ZN16RadioHistoryItemC1ERK7QStringS2_ @ 93 NONAME
	_ZN16RadioHistoryItemC1ERKS_ @ 94 NONAME
	_ZN16RadioHistoryItemC1Ev @ 95 NONAME
	_ZN16RadioHistoryItemC2ERK7QStringS2_ @ 96 NONAME
	_ZN16RadioHistoryItemC2ERKS_ @ 97 NONAME
	_ZN16RadioHistoryItemC2Ev @ 98 NONAME
	_ZN16RadioHistoryItemD1Ev @ 99 NONAME
	_ZN16RadioHistoryItemD2Ev @ 100 NONAME
	_ZN16RadioHistoryItemaSERKS_ @ 101 NONAME
	_ZN17RadioHistoryModel11qt_metacallEN11QMetaObject4CallEiPPv @ 102 NONAME
	_ZN17RadioHistoryModel11qt_metacastEPKc @ 103 NONAME
	_ZN17RadioHistoryModel13emitItemAddedEv @ 104 NONAME
	_ZN17RadioHistoryModel13setShowTaggedEb @ 105 NONAME
	_ZN17RadioHistoryModel13toggleTaggingERK16RadioHistoryItemi @ 106 NONAME
	_ZN17RadioHistoryModel14setShowDetailsEb @ 107 NONAME
	_ZN17RadioHistoryModel16addRadioTextPlusEiRK7QStringRK12RadioStation @ 108 NONAME
	_ZN17RadioHistoryModel16currentSongResetEv @ 109 NONAME
	_ZN17RadioHistoryModel16resetCurrentSongEv @ 110 NONAME
	_ZN17RadioHistoryModel16staticMetaObjectE @ 111 NONAME DATA 16
	_ZN17RadioHistoryModel17reportChangedDataEii @ 112 NONAME
	_ZN17RadioHistoryModel18clearRadioTextPlusEv @ 113 NONAME
	_ZN17RadioHistoryModel19getStaticMetaObjectEv @ 114 NONAME
	_ZN17RadioHistoryModel7addItemERK7QStringS2_RK12RadioStation @ 115 NONAME
	_ZN17RadioHistoryModel8setIconsERK5QIconS2_ @ 116 NONAME
	_ZN17RadioHistoryModel9itemAddedEv @ 117 NONAME
	_ZN17RadioHistoryModel9removeAllEb @ 118 NONAME
	_ZN17RadioHistoryModelC1ER13RadioUiEngine @ 119 NONAME
	_ZN17RadioHistoryModelC2ER13RadioUiEngine @ 120 NONAME
	_ZN17RadioHistoryModelD0Ev @ 121 NONAME
	_ZN17RadioHistoryModelD1Ev @ 122 NONAME
	_ZN17RadioHistoryModelD2Ev @ 123 NONAME
	_ZN17RadioStationModel10addStationERK12RadioStation @ 124 NONAME
	_ZN17RadioStationModel10initializeEP18RadioPresetStorageP18RadioEngineWrapper @ 125 NONAME
	_ZN17RadioStationModel11findClosestEjN11StationSkip4ModeE @ 126 NONAME
	_ZN17RadioStationModel11qt_metacallEN11QMetaObject4CallEiPPv @ 127 NONAME
	_ZN17RadioStationModel11qt_metacastEPKc @ 128 NONAME
	_ZN17RadioStationModel11saveStationER12RadioStation @ 129 NONAME
	_ZN17RadioStationModel12setFavoritesERK5QListI11QModelIndexE @ 130 NONAME
	_ZN17RadioStationModel13favoriteCountEv @ 131 NONAME
	_ZN17RadioStationModel13removeStationERK12RadioStation @ 132 NONAME
	_ZN17RadioStationModel13renameStationEiRK7QString @ 133 NONAME
	_ZN17RadioStationModel14currentStationEv @ 134 NONAME
	_ZN17RadioStationModel15emitDataChangedERK12RadioStation @ 135 NONAME
	_ZN17RadioStationModel15favoriteChangedERK12RadioStation @ 136 NONAME
	_ZN17RadioStationModel15findPresetIndexEi @ 137 NONAME
	_ZN17RadioStationModel15findPresetIndexEiR12RadioStation @ 138 NONAME
	_ZN17RadioStationModel15stationsInRangeEjj @ 139 NONAME
	_ZN17RadioStationModel16dynamicPsChangedERK12RadioStation @ 140 NONAME
	_ZN17RadioStationModel16staticMetaObjectE @ 141 NONAME DATA 16
	_ZN17RadioStationModel16stationHandlerIfEv @ 142 NONAME
	_ZN17RadioStationModel17emitChangeSignalsERK12RadioStation6QFlagsINS0_10ChangeFlagEE @ 143 NONAME
	_ZN17RadioStationModel17radioTextReceivedERK12RadioStation @ 144 NONAME
	_ZN17RadioStationModel17removeByFrequencyEj @ 145 NONAME
	_ZN17RadioStationModel18indexFromFrequencyEj @ 146 NONAME
	_ZN17RadioStationModel18stationDataChangedERK12RadioStation @ 147 NONAME
	_ZN17RadioStationModel19dynamicPsCheckEndedEv @ 148 NONAME
	_ZN17RadioStationModel19getStaticMetaObjectEv @ 149 NONAME
	_ZN17RadioStationModel19removeByPresetIndexEi @ 150 NONAME
	_ZN17RadioStationModel19setFavoriteByPresetEib @ 151 NONAME
	_ZN17RadioStationModel21findUnusedPresetIndexEv @ 152 NONAME
	_ZN17RadioStationModel22setFavoriteByFrequencyEjb @ 153 NONAME
	_ZN17RadioStationModel7setDataERK11QModelIndexRK8QVarianti @ 154 NONAME
	_ZN17RadioStationModel8setIconsERK5QIconS2_ @ 155 NONAME
	_ZN17RadioStationModel9removeAllENS_10RemoveModeE @ 156 NONAME
	_ZN17RadioStationModel9setDetailE6QFlagsINS_10DetailFlagEE @ 157 NONAME
	_ZN17RadioStationModelC1ER20RadioUiEnginePrivate @ 158 NONAME
	_ZN17RadioStationModelC2ER20RadioUiEnginePrivate @ 159 NONAME
	_ZN17RadioStationModelD0Ev @ 160 NONAME
	_ZN17RadioStationModelD1Ev @ 161 NONAME
	_ZN17RadioStationModelD2Ev @ 162 NONAME
	_ZN18RadioScannerEngine11qt_metacallEN11QMetaObject4CallEiPPv @ 163 NONAME
	_ZN18RadioScannerEngine11qt_metacastEPKc @ 164 NONAME
	_ZN18RadioScannerEngine12stationFoundERK12RadioStation @ 165 NONAME
	_ZN18RadioScannerEngine13startScanningEv @ 166 NONAME
	_ZN18RadioScannerEngine16continueScanningEv @ 167 NONAME
	_ZN18RadioScannerEngine16emitStationFoundERK12RadioStation @ 168 NONAME
	_ZN18RadioScannerEngine16staticMetaObjectE @ 169 NONAME DATA 16
	_ZN18RadioScannerEngine19addScannedFrequencyEj @ 170 NONAME
	_ZN18RadioScannerEngine19getStaticMetaObjectEv @ 171 NONAME
	_ZN18RadioScannerEngine6cancelEv @ 172 NONAME
	_ZN18RadioScannerEngineC1ER20RadioUiEnginePrivate @ 173 NONAME
	_ZN18RadioScannerEngineC2ER20RadioUiEnginePrivate @ 174 NONAME
	_ZN18RadioScannerEngineD0Ev @ 175 NONAME
	_ZN18RadioScannerEngineD1Ev @ 176 NONAME
	_ZN18RadioScannerEngineD2Ev @ 177 NONAME
	_ZNK12RadioStation10hasChangedEv @ 178 NONAME
	_ZNK12RadioStation10hasSentRdsEv @ 179 NONAME
	_ZNK12RadioStation10isDetachedEv @ 180 NONAME
	_ZNK12RadioStation10isFavoriteEv @ 181 NONAME
	_ZNK12RadioStation11changeFlagsEv @ 182 NONAME
	_ZNK12RadioStation11presetIndexEv @ 183 NONAME
	_ZNK12RadioStation13dynamicPsTextEv @ 184 NONAME
	_ZNK12RadioStation14hasDataChangedE6QFlagsINS_10ChangeFlagEE @ 185 NONAME
	_ZNK12RadioStation15frequencyStringEv @ 186 NONAME
	_ZNK12RadioStation3urlEv @ 187 NONAME
	_ZNK12RadioStation4nameEv @ 188 NONAME
	_ZNK12RadioStation5genreEv @ 189 NONAME
	_ZNK12RadioStation6isTypeE6QFlagsINS_8TypeFlagEE @ 190 NONAME
	_ZNK12RadioStation6piCodeEv @ 191 NONAME
	_ZNK12RadioStation6psTypeEv @ 192 NONAME
	_ZNK12RadioStation7isValidEv @ 193 NONAME
	_ZNK12RadioStation9frequencyEv @ 194 NONAME
	_ZNK12RadioStation9isRenamedEv @ 195 NONAME
	_ZNK12RadioStation9radioTextEv @ 196 NONAME
	_ZNK13RadioUiEngine10isScanningEv @ 197 NONAME
	_ZNK13RadioUiEngine10metaObjectEv @ 198 NONAME
	_ZNK13RadioUiEngine12maxFrequencyEv @ 199 NONAME
	_ZNK13RadioUiEngine12minFrequencyEv @ 200 NONAME
	_ZNK13RadioUiEngine13isInitializedEv @ 201 NONAME
	_ZNK13RadioUiEngine13isPoweringOffEv @ 202 NONAME
	_ZNK13RadioUiEngine16currentFrequencyEv @ 203 NONAME
	_ZNK13RadioUiEngine17frequencyStepSizeEv @ 204 NONAME
	_ZNK13RadioUiEngine17isAntennaAttachedEv @ 205 NONAME
	_ZNK13RadioUiEngine18isInManualSeekModeEv @ 206 NONAME
	_ZNK13RadioUiEngine18isUsingLoudspeakerEv @ 207 NONAME
	_ZNK13RadioUiEngine6regionEv @ 208 NONAME
	_ZNK13RadioUiEngine7isMutedEv @ 209 NONAME
	_ZNK13RadioUiEngine9isRadioOnEv @ 210 NONAME
	_ZNK16RadioHistoryItem10isDetachedEv @ 211 NONAME
	_ZNK16RadioHistoryItem17isRecognizedByRdsEv @ 212 NONAME
	_ZNK16RadioHistoryItem2idEv @ 213 NONAME
	_ZNK16RadioHistoryItem4timeEv @ 214 NONAME
	_ZNK16RadioHistoryItem5titleEv @ 215 NONAME
	_ZNK16RadioHistoryItem6artistEv @ 216 NONAME
	_ZNK16RadioHistoryItem7isValidEv @ 217 NONAME
	_ZNK16RadioHistoryItem7stationEv @ 218 NONAME
	_ZNK16RadioHistoryItem8isTaggedEv @ 219 NONAME
	_ZNK16RadioHistoryItem9frequencyEv @ 220 NONAME
	_ZNK17RadioHistoryModel10metaObjectEv @ 221 NONAME
	_ZNK17RadioHistoryModel11itemAtIndexERK11QModelIndex @ 222 NONAME
	_ZNK17RadioHistoryModel23isCurrentSongRecognizedEv @ 223 NONAME
	_ZNK17RadioHistoryModel4dataERK11QModelIndexi @ 224 NONAME
	_ZNK17RadioHistoryModel8rowCountERK11QModelIndex @ 225 NONAME
	_ZNK17RadioStationModel10metaObjectEv @ 226 NONAME
	_ZNK17RadioStationModel11findStationEjN12FindCriteria8CriteriaE @ 227 NONAME
	_ZNK17RadioStationModel13findFrequencyEjR12RadioStationN12FindCriteria8CriteriaE @ 228 NONAME
	_ZNK17RadioStationModel14currentStationEv @ 229 NONAME
	_ZNK17RadioStationModel4dataERK11QModelIndexi @ 230 NONAME
	_ZNK17RadioStationModel4listEv @ 231 NONAME
	_ZNK17RadioStationModel5flagsERK11QModelIndex @ 232 NONAME
	_ZNK17RadioStationModel8containsEj @ 233 NONAME
	_ZNK17RadioStationModel8rowCountERK11QModelIndex @ 234 NONAME
	_ZNK17RadioStationModel9stationAtEi @ 235 NONAME
	_ZNK18RadioScannerEngine10isScanningEv @ 236 NONAME
	_ZNK18RadioScannerEngine10metaObjectEv @ 237 NONAME
	_ZTI12RadioStation @ 238 NONAME
	_ZTI13RadioUiEngine @ 239 NONAME
	_ZTI17RadioHistoryModel @ 240 NONAME
	_ZTI17RadioStationModel @ 241 NONAME
	_ZTI18RadioScannerEngine @ 242 NONAME
	_ZTV12RadioStation @ 243 NONAME
	_ZTV13RadioUiEngine @ 244 NONAME
	_ZTV17RadioHistoryModel @ 245 NONAME
	_ZTV17RadioStationModel @ 246 NONAME
	_ZTV18RadioScannerEngine @ 247 NONAME

