EXPORTS
	_ZN11RadioLogger18initCombinedLoggerEv @ 1 NONAME
	_ZN11RadioLogger21releaseCombinedLoggerEv @ 2 NONAME
	_ZN11RadioLogger6logMsgEPKcNS_4ModeE @ 3 NONAME
	_ZN12MethodLoggerC1EPKcS1_ @ 4 NONAME
	_ZN12MethodLoggerC2EPKcS1_ @ 5 NONAME
	_ZN12MethodLoggerD1Ev @ 6 NONAME
	_ZN12MethodLoggerD2Ev @ 7 NONAME
	_ZN18RadioEngineWrapper11addObserverEP26RadioEngineWrapperObserver @ 8 NONAME
	_ZN18RadioEngineWrapper12startSeekingEN7Seeking9DirectionEi @ 9 NONAME
	_ZN18RadioEngineWrapper13cancelSeekingEv @ 10 NONAME
	_ZN18RadioEngineWrapper13tuneFrequencyEji @ 11 NONAME
	_ZN18RadioEngineWrapper13tuneWithDelayEji @ 12 NONAME
	_ZN18RadioEngineWrapper14removeObserverEP26RadioEngineWrapperObserver @ 13 NONAME
	_ZN18RadioEngineWrapper16isFrequencyValidEj @ 14 NONAME
	_ZN18RadioEngineWrapper16toggleAudioRouteEv @ 15 NONAME
	_ZN18RadioEngineWrapper19isEngineConstructedEv @ 16 NONAME
	_ZN18RadioEngineWrapper7setMuteEb @ 17 NONAME
	_ZN18RadioEngineWrapper8settingsEv @ 18 NONAME
	_ZN18RadioEngineWrapper9setVolumeEi @ 19 NONAME
	_ZN18RadioEngineWrapperC1ER21RadioStationHandlerIf @ 20 NONAME
	_ZN18RadioEngineWrapperC2ER21RadioStationHandlerIf @ 21 NONAME
	_ZN18RadioEngineWrapperD1Ev @ 22 NONAME
	_ZN18RadioEngineWrapperD2Ev @ 23 NONAME
	_ZN26RadioEngineWrapperObserver11muteChangedEb @ 24 NONAME
	_ZN26RadioEngineWrapperObserver12skipPreviousEv @ 25 NONAME
	_ZN26RadioEngineWrapperObserver13volumeChangedEi @ 26 NONAME
	_ZN26RadioEngineWrapperObserver16tunedToFrequencyEji @ 27 NONAME
	_ZN26RadioEngineWrapperObserver17audioRouteChangedEb @ 28 NONAME
	_ZN26RadioEngineWrapperObserver18radioStatusChangedEb @ 29 NONAME
	_ZN26RadioEngineWrapperObserver20antennaStatusChangedEb @ 30 NONAME
	_ZN26RadioEngineWrapperObserver22rdsAvailabilityChangedEb @ 31 NONAME
	_ZN26RadioEngineWrapperObserver8skipNextEv @ 32 NONAME
	_ZNK18RadioEngineWrapper12maxFrequencyEv @ 33 NONAME
	_ZNK18RadioEngineWrapper12minFrequencyEv @ 34 NONAME
	_ZNK18RadioEngineWrapper16currentFrequencyEv @ 35 NONAME
	_ZNK18RadioEngineWrapper17frequencyStepSizeEv @ 36 NONAME
	_ZNK18RadioEngineWrapper17isAntennaAttachedEv @ 37 NONAME
	_ZNK18RadioEngineWrapper18isUsingLoudspeakerEv @ 38 NONAME
	_ZNK18RadioEngineWrapper6regionEv @ 39 NONAME
	_ZNK18RadioEngineWrapper7isMutedEv @ 40 NONAME
	_ZNK18RadioEngineWrapper9isRadioOnEv @ 41 NONAME
	_ZTI26RadioEngineWrapperObserver @ 42 NONAME
	_ZTV26RadioEngineWrapperObserver @ 43 NONAME

